
ctarget:     file format elf64-x86-64


Disassembly of section .init:

0000000000400c48 <_init>:
  400c48:	48 83 ec 08          	sub    $0x8,%rsp
  400c4c:	48 8b 05 a5 43 20 00 	mov    0x2043a5(%rip),%rax        # 604ff8 <__gmon_start__>
  400c53:	48 85 c0             	test   %rax,%rax
  400c56:	74 02                	je     400c5a <_init+0x12>
  400c58:	ff d0                	callq  *%rax
  400c5a:	48 83 c4 08          	add    $0x8,%rsp
  400c5e:	c3                   	retq   

Disassembly of section .plt:

0000000000400c60 <.plt>:
  400c60:	ff 35 a2 43 20 00    	pushq  0x2043a2(%rip)        # 605008 <_GLOBAL_OFFSET_TABLE_+0x8>
  400c66:	ff 25 a4 43 20 00    	jmpq   *0x2043a4(%rip)        # 605010 <_GLOBAL_OFFSET_TABLE_+0x10>
  400c6c:	0f 1f 40 00          	nopl   0x0(%rax)

0000000000400c70 <strcasecmp@plt>:
  400c70:	ff 25 a2 43 20 00    	jmpq   *0x2043a2(%rip)        # 605018 <strcasecmp@GLIBC_2.2.5>
  400c76:	68 00 00 00 00       	pushq  $0x0
  400c7b:	e9 e0 ff ff ff       	jmpq   400c60 <.plt>

0000000000400c80 <__errno_location@plt>:
  400c80:	ff 25 9a 43 20 00    	jmpq   *0x20439a(%rip)        # 605020 <__errno_location@GLIBC_2.2.5>
  400c86:	68 01 00 00 00       	pushq  $0x1
  400c8b:	e9 d0 ff ff ff       	jmpq   400c60 <.plt>

0000000000400c90 <srandom@plt>:
  400c90:	ff 25 92 43 20 00    	jmpq   *0x204392(%rip)        # 605028 <srandom@GLIBC_2.2.5>
  400c96:	68 02 00 00 00       	pushq  $0x2
  400c9b:	e9 c0 ff ff ff       	jmpq   400c60 <.plt>

0000000000400ca0 <strncmp@plt>:
  400ca0:	ff 25 8a 43 20 00    	jmpq   *0x20438a(%rip)        # 605030 <strncmp@GLIBC_2.2.5>
  400ca6:	68 03 00 00 00       	pushq  $0x3
  400cab:	e9 b0 ff ff ff       	jmpq   400c60 <.plt>

0000000000400cb0 <strcpy@plt>:
  400cb0:	ff 25 82 43 20 00    	jmpq   *0x204382(%rip)        # 605038 <strcpy@GLIBC_2.2.5>
  400cb6:	68 04 00 00 00       	pushq  $0x4
  400cbb:	e9 a0 ff ff ff       	jmpq   400c60 <.plt>

0000000000400cc0 <puts@plt>:
  400cc0:	ff 25 7a 43 20 00    	jmpq   *0x20437a(%rip)        # 605040 <puts@GLIBC_2.2.5>
  400cc6:	68 05 00 00 00       	pushq  $0x5
  400ccb:	e9 90 ff ff ff       	jmpq   400c60 <.plt>

0000000000400cd0 <write@plt>:
  400cd0:	ff 25 72 43 20 00    	jmpq   *0x204372(%rip)        # 605048 <write@GLIBC_2.2.5>
  400cd6:	68 06 00 00 00       	pushq  $0x6
  400cdb:	e9 80 ff ff ff       	jmpq   400c60 <.plt>

0000000000400ce0 <__stack_chk_fail@plt>:
  400ce0:	ff 25 6a 43 20 00    	jmpq   *0x20436a(%rip)        # 605050 <__stack_chk_fail@GLIBC_2.4>
  400ce6:	68 07 00 00 00       	pushq  $0x7
  400ceb:	e9 70 ff ff ff       	jmpq   400c60 <.plt>

0000000000400cf0 <mmap@plt>:
  400cf0:	ff 25 62 43 20 00    	jmpq   *0x204362(%rip)        # 605058 <mmap@GLIBC_2.2.5>
  400cf6:	68 08 00 00 00       	pushq  $0x8
  400cfb:	e9 60 ff ff ff       	jmpq   400c60 <.plt>

0000000000400d00 <memset@plt>:
  400d00:	ff 25 5a 43 20 00    	jmpq   *0x20435a(%rip)        # 605060 <memset@GLIBC_2.2.5>
  400d06:	68 09 00 00 00       	pushq  $0x9
  400d0b:	e9 50 ff ff ff       	jmpq   400c60 <.plt>

0000000000400d10 <alarm@plt>:
  400d10:	ff 25 52 43 20 00    	jmpq   *0x204352(%rip)        # 605068 <alarm@GLIBC_2.2.5>
  400d16:	68 0a 00 00 00       	pushq  $0xa
  400d1b:	e9 40 ff ff ff       	jmpq   400c60 <.plt>

0000000000400d20 <close@plt>:
  400d20:	ff 25 4a 43 20 00    	jmpq   *0x20434a(%rip)        # 605070 <close@GLIBC_2.2.5>
  400d26:	68 0b 00 00 00       	pushq  $0xb
  400d2b:	e9 30 ff ff ff       	jmpq   400c60 <.plt>

0000000000400d30 <read@plt>:
  400d30:	ff 25 42 43 20 00    	jmpq   *0x204342(%rip)        # 605078 <read@GLIBC_2.2.5>
  400d36:	68 0c 00 00 00       	pushq  $0xc
  400d3b:	e9 20 ff ff ff       	jmpq   400c60 <.plt>

0000000000400d40 <signal@plt>:
  400d40:	ff 25 3a 43 20 00    	jmpq   *0x20433a(%rip)        # 605080 <signal@GLIBC_2.2.5>
  400d46:	68 0d 00 00 00       	pushq  $0xd
  400d4b:	e9 10 ff ff ff       	jmpq   400c60 <.plt>

0000000000400d50 <gethostbyname@plt>:
  400d50:	ff 25 32 43 20 00    	jmpq   *0x204332(%rip)        # 605088 <gethostbyname@GLIBC_2.2.5>
  400d56:	68 0e 00 00 00       	pushq  $0xe
  400d5b:	e9 00 ff ff ff       	jmpq   400c60 <.plt>

0000000000400d60 <__memmove_chk@plt>:
  400d60:	ff 25 2a 43 20 00    	jmpq   *0x20432a(%rip)        # 605090 <__memmove_chk@GLIBC_2.3.4>
  400d66:	68 0f 00 00 00       	pushq  $0xf
  400d6b:	e9 f0 fe ff ff       	jmpq   400c60 <.plt>

0000000000400d70 <strtol@plt>:
  400d70:	ff 25 22 43 20 00    	jmpq   *0x204322(%rip)        # 605098 <strtol@GLIBC_2.2.5>
  400d76:	68 10 00 00 00       	pushq  $0x10
  400d7b:	e9 e0 fe ff ff       	jmpq   400c60 <.plt>

0000000000400d80 <memcpy@plt>:
  400d80:	ff 25 1a 43 20 00    	jmpq   *0x20431a(%rip)        # 6050a0 <memcpy@GLIBC_2.14>
  400d86:	68 11 00 00 00       	pushq  $0x11
  400d8b:	e9 d0 fe ff ff       	jmpq   400c60 <.plt>

0000000000400d90 <time@plt>:
  400d90:	ff 25 12 43 20 00    	jmpq   *0x204312(%rip)        # 6050a8 <time@GLIBC_2.2.5>
  400d96:	68 12 00 00 00       	pushq  $0x12
  400d9b:	e9 c0 fe ff ff       	jmpq   400c60 <.plt>

0000000000400da0 <random@plt>:
  400da0:	ff 25 0a 43 20 00    	jmpq   *0x20430a(%rip)        # 6050b0 <random@GLIBC_2.2.5>
  400da6:	68 13 00 00 00       	pushq  $0x13
  400dab:	e9 b0 fe ff ff       	jmpq   400c60 <.plt>

0000000000400db0 <_IO_getc@plt>:
  400db0:	ff 25 02 43 20 00    	jmpq   *0x204302(%rip)        # 6050b8 <_IO_getc@GLIBC_2.2.5>
  400db6:	68 14 00 00 00       	pushq  $0x14
  400dbb:	e9 a0 fe ff ff       	jmpq   400c60 <.plt>

0000000000400dc0 <__isoc99_sscanf@plt>:
  400dc0:	ff 25 fa 42 20 00    	jmpq   *0x2042fa(%rip)        # 6050c0 <__isoc99_sscanf@GLIBC_2.7>
  400dc6:	68 15 00 00 00       	pushq  $0x15
  400dcb:	e9 90 fe ff ff       	jmpq   400c60 <.plt>

0000000000400dd0 <munmap@plt>:
  400dd0:	ff 25 f2 42 20 00    	jmpq   *0x2042f2(%rip)        # 6050c8 <munmap@GLIBC_2.2.5>
  400dd6:	68 16 00 00 00       	pushq  $0x16
  400ddb:	e9 80 fe ff ff       	jmpq   400c60 <.plt>

0000000000400de0 <__printf_chk@plt>:
  400de0:	ff 25 ea 42 20 00    	jmpq   *0x2042ea(%rip)        # 6050d0 <__printf_chk@GLIBC_2.3.4>
  400de6:	68 17 00 00 00       	pushq  $0x17
  400deb:	e9 70 fe ff ff       	jmpq   400c60 <.plt>

0000000000400df0 <fopen@plt>:
  400df0:	ff 25 e2 42 20 00    	jmpq   *0x2042e2(%rip)        # 6050d8 <fopen@GLIBC_2.2.5>
  400df6:	68 18 00 00 00       	pushq  $0x18
  400dfb:	e9 60 fe ff ff       	jmpq   400c60 <.plt>

0000000000400e00 <getopt@plt>:
  400e00:	ff 25 da 42 20 00    	jmpq   *0x2042da(%rip)        # 6050e0 <getopt@GLIBC_2.2.5>
  400e06:	68 19 00 00 00       	pushq  $0x19
  400e0b:	e9 50 fe ff ff       	jmpq   400c60 <.plt>

0000000000400e10 <strtoul@plt>:
  400e10:	ff 25 d2 42 20 00    	jmpq   *0x2042d2(%rip)        # 6050e8 <strtoul@GLIBC_2.2.5>
  400e16:	68 1a 00 00 00       	pushq  $0x1a
  400e1b:	e9 40 fe ff ff       	jmpq   400c60 <.plt>

0000000000400e20 <gethostname@plt>:
  400e20:	ff 25 ca 42 20 00    	jmpq   *0x2042ca(%rip)        # 6050f0 <gethostname@GLIBC_2.2.5>
  400e26:	68 1b 00 00 00       	pushq  $0x1b
  400e2b:	e9 30 fe ff ff       	jmpq   400c60 <.plt>

0000000000400e30 <exit@plt>:
  400e30:	ff 25 c2 42 20 00    	jmpq   *0x2042c2(%rip)        # 6050f8 <exit@GLIBC_2.2.5>
  400e36:	68 1c 00 00 00       	pushq  $0x1c
  400e3b:	e9 20 fe ff ff       	jmpq   400c60 <.plt>

0000000000400e40 <connect@plt>:
  400e40:	ff 25 ba 42 20 00    	jmpq   *0x2042ba(%rip)        # 605100 <connect@GLIBC_2.2.5>
  400e46:	68 1d 00 00 00       	pushq  $0x1d
  400e4b:	e9 10 fe ff ff       	jmpq   400c60 <.plt>

0000000000400e50 <__fprintf_chk@plt>:
  400e50:	ff 25 b2 42 20 00    	jmpq   *0x2042b2(%rip)        # 605108 <__fprintf_chk@GLIBC_2.3.4>
  400e56:	68 1e 00 00 00       	pushq  $0x1e
  400e5b:	e9 00 fe ff ff       	jmpq   400c60 <.plt>

0000000000400e60 <__sprintf_chk@plt>:
  400e60:	ff 25 aa 42 20 00    	jmpq   *0x2042aa(%rip)        # 605110 <__sprintf_chk@GLIBC_2.3.4>
  400e66:	68 1f 00 00 00       	pushq  $0x1f
  400e6b:	e9 f0 fd ff ff       	jmpq   400c60 <.plt>

0000000000400e70 <socket@plt>:
  400e70:	ff 25 a2 42 20 00    	jmpq   *0x2042a2(%rip)        # 605118 <socket@GLIBC_2.2.5>
  400e76:	68 20 00 00 00       	pushq  $0x20
  400e7b:	e9 e0 fd ff ff       	jmpq   400c60 <.plt>

Disassembly of section .text:

0000000000400e80 <_start>:
  400e80:	31 ed                	xor    %ebp,%ebp
  400e82:	49 89 d1             	mov    %rdx,%r9
  400e85:	5e                   	pop    %rsi
  400e86:	48 89 e2             	mov    %rsp,%rdx
  400e89:	48 83 e4 f0          	and    $0xfffffffffffffff0,%rsp
  400e8d:	50                   	push   %rax
  400e8e:	54                   	push   %rsp
  400e8f:	49 c7 c0 e0 2e 40 00 	mov    $0x402ee0,%r8
  400e96:	48 c7 c1 70 2e 40 00 	mov    $0x402e70,%rcx
  400e9d:	48 c7 c7 73 11 40 00 	mov    $0x401173,%rdi
  400ea4:	ff 15 46 41 20 00    	callq  *0x204146(%rip)        # 604ff0 <__libc_start_main@GLIBC_2.2.5>
  400eaa:	f4                   	hlt    
  400eab:	0f 1f 44 00 00       	nopl   0x0(%rax,%rax,1)

0000000000400eb0 <_dl_relocate_static_pie>:
  400eb0:	f3 c3                	repz retq 
  400eb2:	66 2e 0f 1f 84 00 00 	nopw   %cs:0x0(%rax,%rax,1)
  400eb9:	00 00 00 
  400ebc:	0f 1f 40 00          	nopl   0x0(%rax)

0000000000400ec0 <deregister_tm_clones>:
  400ec0:	55                   	push   %rbp
  400ec1:	b8 90 54 60 00       	mov    $0x605490,%eax
  400ec6:	48 3d 90 54 60 00    	cmp    $0x605490,%rax
  400ecc:	48 89 e5             	mov    %rsp,%rbp
  400ecf:	74 17                	je     400ee8 <deregister_tm_clones+0x28>
  400ed1:	b8 00 00 00 00       	mov    $0x0,%eax
  400ed6:	48 85 c0             	test   %rax,%rax
  400ed9:	74 0d                	je     400ee8 <deregister_tm_clones+0x28>
  400edb:	5d                   	pop    %rbp
  400edc:	bf 90 54 60 00       	mov    $0x605490,%edi
  400ee1:	ff e0                	jmpq   *%rax
  400ee3:	0f 1f 44 00 00       	nopl   0x0(%rax,%rax,1)
  400ee8:	5d                   	pop    %rbp
  400ee9:	c3                   	retq   
  400eea:	66 0f 1f 44 00 00    	nopw   0x0(%rax,%rax,1)

0000000000400ef0 <register_tm_clones>:
  400ef0:	be 90 54 60 00       	mov    $0x605490,%esi
  400ef5:	55                   	push   %rbp
  400ef6:	48 81 ee 90 54 60 00 	sub    $0x605490,%rsi
  400efd:	48 89 e5             	mov    %rsp,%rbp
  400f00:	48 c1 fe 03          	sar    $0x3,%rsi
  400f04:	48 89 f0             	mov    %rsi,%rax
  400f07:	48 c1 e8 3f          	shr    $0x3f,%rax
  400f0b:	48 01 c6             	add    %rax,%rsi
  400f0e:	48 d1 fe             	sar    %rsi
  400f11:	74 15                	je     400f28 <register_tm_clones+0x38>
  400f13:	b8 00 00 00 00       	mov    $0x0,%eax
  400f18:	48 85 c0             	test   %rax,%rax
  400f1b:	74 0b                	je     400f28 <register_tm_clones+0x38>
  400f1d:	5d                   	pop    %rbp
  400f1e:	bf 90 54 60 00       	mov    $0x605490,%edi
  400f23:	ff e0                	jmpq   *%rax
  400f25:	0f 1f 00             	nopl   (%rax)
  400f28:	5d                   	pop    %rbp
  400f29:	c3                   	retq   
  400f2a:	66 0f 1f 44 00 00    	nopw   0x0(%rax,%rax,1)

0000000000400f30 <__do_global_dtors_aux>:
  400f30:	80 3d 91 45 20 00 00 	cmpb   $0x0,0x204591(%rip)        # 6054c8 <completed.7698>
  400f37:	75 17                	jne    400f50 <__do_global_dtors_aux+0x20>
  400f39:	55                   	push   %rbp
  400f3a:	48 89 e5             	mov    %rsp,%rbp
  400f3d:	e8 7e ff ff ff       	callq  400ec0 <deregister_tm_clones>
  400f42:	c6 05 7f 45 20 00 01 	movb   $0x1,0x20457f(%rip)        # 6054c8 <completed.7698>
  400f49:	5d                   	pop    %rbp
  400f4a:	c3                   	retq   
  400f4b:	0f 1f 44 00 00       	nopl   0x0(%rax,%rax,1)
  400f50:	f3 c3                	repz retq 
  400f52:	0f 1f 40 00          	nopl   0x0(%rax)
  400f56:	66 2e 0f 1f 84 00 00 	nopw   %cs:0x0(%rax,%rax,1)
  400f5d:	00 00 00 

0000000000400f60 <frame_dummy>:
  400f60:	55                   	push   %rbp
  400f61:	48 89 e5             	mov    %rsp,%rbp
  400f64:	5d                   	pop    %rbp
  400f65:	eb 89                	jmp    400ef0 <register_tm_clones>

0000000000400f67 <usage>:
  400f67:	48 83 ec 08          	sub    $0x8,%rsp
  400f6b:	48 89 fa             	mov    %rdi,%rdx
  400f6e:	83 3d 93 45 20 00 00 	cmpl   $0x0,0x204593(%rip)        # 605508 <is_checker>
  400f75:	74 46                	je     400fbd <usage+0x56>
  400f77:	be f8 2e 40 00       	mov    $0x402ef8,%esi
  400f7c:	bf 01 00 00 00       	mov    $0x1,%edi
  400f81:	b8 00 00 00 00       	mov    $0x0,%eax
  400f86:	e8 55 fe ff ff       	callq  400de0 <__printf_chk@plt>
  400f8b:	bf 30 2f 40 00       	mov    $0x402f30,%edi
  400f90:	e8 2b fd ff ff       	callq  400cc0 <puts@plt>
  400f95:	bf a8 30 40 00       	mov    $0x4030a8,%edi
  400f9a:	e8 21 fd ff ff       	callq  400cc0 <puts@plt>
  400f9f:	bf 58 2f 40 00       	mov    $0x402f58,%edi
  400fa4:	e8 17 fd ff ff       	callq  400cc0 <puts@plt>
  400fa9:	bf c2 30 40 00       	mov    $0x4030c2,%edi
  400fae:	e8 0d fd ff ff       	callq  400cc0 <puts@plt>
  400fb3:	bf 00 00 00 00       	mov    $0x0,%edi
  400fb8:	e8 73 fe ff ff       	callq  400e30 <exit@plt>
  400fbd:	be de 30 40 00       	mov    $0x4030de,%esi
  400fc2:	bf 01 00 00 00       	mov    $0x1,%edi
  400fc7:	b8 00 00 00 00       	mov    $0x0,%eax
  400fcc:	e8 0f fe ff ff       	callq  400de0 <__printf_chk@plt>
  400fd1:	bf 80 2f 40 00       	mov    $0x402f80,%edi
  400fd6:	e8 e5 fc ff ff       	callq  400cc0 <puts@plt>
  400fdb:	bf a8 2f 40 00       	mov    $0x402fa8,%edi
  400fe0:	e8 db fc ff ff       	callq  400cc0 <puts@plt>
  400fe5:	bf fc 30 40 00       	mov    $0x4030fc,%edi
  400fea:	e8 d1 fc ff ff       	callq  400cc0 <puts@plt>
  400fef:	eb c2                	jmp    400fb3 <usage+0x4c>

0000000000400ff1 <initialize_target>:
  400ff1:	55                   	push   %rbp
  400ff2:	53                   	push   %rbx
  400ff3:	48 81 ec 18 21 00 00 	sub    $0x2118,%rsp
  400ffa:	89 f5                	mov    %esi,%ebp
  400ffc:	64 48 8b 04 25 28 00 	mov    %fs:0x28,%rax
  401003:	00 00 
  401005:	48 89 84 24 08 21 00 	mov    %rax,0x2108(%rsp)
  40100c:	00 
  40100d:	31 c0                	xor    %eax,%eax
  40100f:	89 3d e3 44 20 00    	mov    %edi,0x2044e3(%rip)        # 6054f8 <check_level>
  401015:	8b 3d 2d 41 20 00    	mov    0x20412d(%rip),%edi        # 605148 <target_id>
  40101b:	e8 27 1e 00 00       	callq  402e47 <gencookie>
  401020:	89 05 de 44 20 00    	mov    %eax,0x2044de(%rip)        # 605504 <cookie>
  401026:	89 c7                	mov    %eax,%edi
  401028:	e8 1a 1e 00 00       	callq  402e47 <gencookie>
  40102d:	89 05 cd 44 20 00    	mov    %eax,0x2044cd(%rip)        # 605500 <authkey>
  401033:	8b 05 0f 41 20 00    	mov    0x20410f(%rip),%eax        # 605148 <target_id>
  401039:	8d 78 01             	lea    0x1(%rax),%edi
  40103c:	e8 4f fc ff ff       	callq  400c90 <srandom@plt>
  401041:	e8 5a fd ff ff       	callq  400da0 <random@plt>
  401046:	89 c7                	mov    %eax,%edi
  401048:	e8 f2 02 00 00       	callq  40133f <scramble>
  40104d:	89 c3                	mov    %eax,%ebx
  40104f:	85 ed                	test   %ebp,%ebp
  401051:	75 54                	jne    4010a7 <initialize_target+0xb6>
  401053:	b8 00 00 00 00       	mov    $0x0,%eax
  401058:	01 d8                	add    %ebx,%eax
  40105a:	0f b7 c0             	movzwl %ax,%eax
  40105d:	8d 04 c5 00 01 00 00 	lea    0x100(,%rax,8),%eax
  401064:	89 c0                	mov    %eax,%eax
  401066:	48 89 05 13 44 20 00 	mov    %rax,0x204413(%rip)        # 605480 <buf_offset>
  40106d:	c6 05 b4 50 20 00 63 	movb   $0x63,0x2050b4(%rip)        # 606128 <target_prefix>
  401074:	83 3d 0d 44 20 00 00 	cmpl   $0x0,0x20440d(%rip)        # 605488 <notify>
  40107b:	74 09                	je     401086 <initialize_target+0x95>
  40107d:	83 3d 84 44 20 00 00 	cmpl   $0x0,0x204484(%rip)        # 605508 <is_checker>
  401084:	74 39                	je     4010bf <initialize_target+0xce>
  401086:	48 8b 84 24 08 21 00 	mov    0x2108(%rsp),%rax
  40108d:	00 
  40108e:	64 48 33 04 25 28 00 	xor    %fs:0x28,%rax
  401095:	00 00 
  401097:	0f 85 d1 00 00 00    	jne    40116e <initialize_target+0x17d>
  40109d:	48 81 c4 18 21 00 00 	add    $0x2118,%rsp
  4010a4:	5b                   	pop    %rbx
  4010a5:	5d                   	pop    %rbp
  4010a6:	c3                   	retq   
  4010a7:	bf 00 00 00 00       	mov    $0x0,%edi
  4010ac:	e8 df fc ff ff       	callq  400d90 <time@plt>
  4010b1:	89 c7                	mov    %eax,%edi
  4010b3:	e8 d8 fb ff ff       	callq  400c90 <srandom@plt>
  4010b8:	e8 e3 fc ff ff       	callq  400da0 <random@plt>
  4010bd:	eb 99                	jmp    401058 <initialize_target+0x67>
  4010bf:	be 00 01 00 00       	mov    $0x100,%esi
  4010c4:	48 89 e7             	mov    %rsp,%rdi
  4010c7:	e8 54 fd ff ff       	callq  400e20 <gethostname@plt>
  4010cc:	89 c5                	mov    %eax,%ebp
  4010ce:	85 c0                	test   %eax,%eax
  4010d0:	75 23                	jne    4010f5 <initialize_target+0x104>
  4010d2:	89 c3                	mov    %eax,%ebx
  4010d4:	48 63 c3             	movslq %ebx,%rax
  4010d7:	48 8b 3c c5 60 51 60 	mov    0x605160(,%rax,8),%rdi
  4010de:	00 
  4010df:	48 85 ff             	test   %rdi,%rdi
  4010e2:	74 2a                	je     40110e <initialize_target+0x11d>
  4010e4:	48 89 e6             	mov    %rsp,%rsi
  4010e7:	e8 84 fb ff ff       	callq  400c70 <strcasecmp@plt>
  4010ec:	85 c0                	test   %eax,%eax
  4010ee:	74 19                	je     401109 <initialize_target+0x118>
  4010f0:	83 c3 01             	add    $0x1,%ebx
  4010f3:	eb df                	jmp    4010d4 <initialize_target+0xe3>
  4010f5:	bf d8 2f 40 00       	mov    $0x402fd8,%edi
  4010fa:	e8 c1 fb ff ff       	callq  400cc0 <puts@plt>
  4010ff:	bf 08 00 00 00       	mov    $0x8,%edi
  401104:	e8 27 fd ff ff       	callq  400e30 <exit@plt>
  401109:	bd 01 00 00 00       	mov    $0x1,%ebp
  40110e:	85 ed                	test   %ebp,%ebp
  401110:	74 3b                	je     40114d <initialize_target+0x15c>
  401112:	48 8d bc 24 00 01 00 	lea    0x100(%rsp),%rdi
  401119:	00 
  40111a:	e8 7d 1a 00 00       	callq  402b9c <init_driver>
  40111f:	85 c0                	test   %eax,%eax
  401121:	0f 89 5f ff ff ff    	jns    401086 <initialize_target+0x95>
  401127:	48 8d 94 24 00 01 00 	lea    0x100(%rsp),%rdx
  40112e:	00 
  40112f:	be 50 30 40 00       	mov    $0x403050,%esi
  401134:	bf 01 00 00 00       	mov    $0x1,%edi
  401139:	b8 00 00 00 00       	mov    $0x0,%eax
  40113e:	e8 9d fc ff ff       	callq  400de0 <__printf_chk@plt>
  401143:	bf 08 00 00 00       	mov    $0x8,%edi
  401148:	e8 e3 fc ff ff       	callq  400e30 <exit@plt>
  40114d:	48 89 e2             	mov    %rsp,%rdx
  401150:	be 10 30 40 00       	mov    $0x403010,%esi
  401155:	bf 01 00 00 00       	mov    $0x1,%edi
  40115a:	b8 00 00 00 00       	mov    $0x0,%eax
  40115f:	e8 7c fc ff ff       	callq  400de0 <__printf_chk@plt>
  401164:	bf 08 00 00 00       	mov    $0x8,%edi
  401169:	e8 c2 fc ff ff       	callq  400e30 <exit@plt>
  40116e:	e8 6d fb ff ff       	callq  400ce0 <__stack_chk_fail@plt>

0000000000401173 <main>:
  401173:	41 56                	push   %r14
  401175:	41 55                	push   %r13
  401177:	41 54                	push   %r12
  401179:	55                   	push   %rbp
  40117a:	53                   	push   %rbx
  40117b:	41 89 fc             	mov    %edi,%r12d
  40117e:	48 89 f3             	mov    %rsi,%rbx
  401181:	be d9 1e 40 00       	mov    $0x401ed9,%esi
  401186:	bf 0b 00 00 00       	mov    $0xb,%edi
  40118b:	e8 b0 fb ff ff       	callq  400d40 <signal@plt>
  401190:	be 8b 1e 40 00       	mov    $0x401e8b,%esi
  401195:	bf 07 00 00 00       	mov    $0x7,%edi
  40119a:	e8 a1 fb ff ff       	callq  400d40 <signal@plt>
  40119f:	be 27 1f 40 00       	mov    $0x401f27,%esi
  4011a4:	bf 04 00 00 00       	mov    $0x4,%edi
  4011a9:	e8 92 fb ff ff       	callq  400d40 <signal@plt>
  4011ae:	83 3d 53 43 20 00 00 	cmpl   $0x0,0x204353(%rip)        # 605508 <is_checker>
  4011b5:	75 24                	jne    4011db <main+0x68>
  4011b7:	bd 15 31 40 00       	mov    $0x403115,%ebp
  4011bc:	48 8b 05 dd 42 20 00 	mov    0x2042dd(%rip),%rax        # 6054a0 <stdin@@GLIBC_2.2.5>
  4011c3:	48 89 05 26 43 20 00 	mov    %rax,0x204326(%rip)        # 6054f0 <infile>
  4011ca:	41 bd 00 00 00 00    	mov    $0x0,%r13d
  4011d0:	41 be 00 00 00 00    	mov    $0x0,%r14d
  4011d6:	e9 85 00 00 00       	jmpq   401260 <main+0xed>
  4011db:	be 75 1f 40 00       	mov    $0x401f75,%esi
  4011e0:	bf 0e 00 00 00       	mov    $0xe,%edi
  4011e5:	e8 56 fb ff ff       	callq  400d40 <signal@plt>
  4011ea:	bf 05 00 00 00       	mov    $0x5,%edi
  4011ef:	e8 1c fb ff ff       	callq  400d10 <alarm@plt>
  4011f4:	bd 1a 31 40 00       	mov    $0x40311a,%ebp
  4011f9:	eb c1                	jmp    4011bc <main+0x49>
  4011fb:	48 8b 3b             	mov    (%rbx),%rdi
  4011fe:	e8 64 fd ff ff       	callq  400f67 <usage>
  401203:	be e5 33 40 00       	mov    $0x4033e5,%esi
  401208:	48 8b 3d 99 42 20 00 	mov    0x204299(%rip),%rdi        # 6054a8 <optarg@@GLIBC_2.2.5>
  40120f:	e8 dc fb ff ff       	callq  400df0 <fopen@plt>
  401214:	48 89 05 d5 42 20 00 	mov    %rax,0x2042d5(%rip)        # 6054f0 <infile>
  40121b:	48 85 c0             	test   %rax,%rax
  40121e:	75 40                	jne    401260 <main+0xed>
  401220:	48 8b 0d 81 42 20 00 	mov    0x204281(%rip),%rcx        # 6054a8 <optarg@@GLIBC_2.2.5>
  401227:	ba 22 31 40 00       	mov    $0x403122,%edx
  40122c:	be 01 00 00 00       	mov    $0x1,%esi
  401231:	48 8b 3d 88 42 20 00 	mov    0x204288(%rip),%rdi        # 6054c0 <stderr@@GLIBC_2.2.5>
  401238:	e8 13 fc ff ff       	callq  400e50 <__fprintf_chk@plt>
  40123d:	b8 01 00 00 00       	mov    $0x1,%eax
  401242:	e9 cc 00 00 00       	jmpq   401313 <main+0x1a0>
  401247:	ba 10 00 00 00       	mov    $0x10,%edx
  40124c:	be 00 00 00 00       	mov    $0x0,%esi
  401251:	48 8b 3d 50 42 20 00 	mov    0x204250(%rip),%rdi        # 6054a8 <optarg@@GLIBC_2.2.5>
  401258:	e8 b3 fb ff ff       	callq  400e10 <strtoul@plt>
  40125d:	41 89 c6             	mov    %eax,%r14d
  401260:	48 89 ea             	mov    %rbp,%rdx
  401263:	48 89 de             	mov    %rbx,%rsi
  401266:	44 89 e7             	mov    %r12d,%edi
  401269:	e8 92 fb ff ff       	callq  400e00 <getopt@plt>
  40126e:	3c ff                	cmp    $0xff,%al
  401270:	74 57                	je     4012c9 <main+0x156>
  401272:	0f be d0             	movsbl %al,%edx
  401275:	83 e8 61             	sub    $0x61,%eax
  401278:	3c 10                	cmp    $0x10,%al
  40127a:	77 31                	ja     4012ad <main+0x13a>
  40127c:	0f b6 c0             	movzbl %al,%eax
  40127f:	ff 24 c5 60 31 40 00 	jmpq   *0x403160(,%rax,8)
  401286:	ba 0a 00 00 00       	mov    $0xa,%edx
  40128b:	be 00 00 00 00       	mov    $0x0,%esi
  401290:	48 8b 3d 11 42 20 00 	mov    0x204211(%rip),%rdi        # 6054a8 <optarg@@GLIBC_2.2.5>
  401297:	e8 d4 fa ff ff       	callq  400d70 <strtol@plt>
  40129c:	41 89 c5             	mov    %eax,%r13d
  40129f:	eb bf                	jmp    401260 <main+0xed>
  4012a1:	c7 05 dd 41 20 00 00 	movl   $0x0,0x2041dd(%rip)        # 605488 <notify>
  4012a8:	00 00 00 
  4012ab:	eb b3                	jmp    401260 <main+0xed>
  4012ad:	be 3f 31 40 00       	mov    $0x40313f,%esi
  4012b2:	bf 01 00 00 00       	mov    $0x1,%edi
  4012b7:	b8 00 00 00 00       	mov    $0x0,%eax
  4012bc:	e8 1f fb ff ff       	callq  400de0 <__printf_chk@plt>
  4012c1:	48 8b 3b             	mov    (%rbx),%rdi
  4012c4:	e8 9e fc ff ff       	callq  400f67 <usage>
  4012c9:	be 00 00 00 00       	mov    $0x0,%esi
  4012ce:	44 89 ef             	mov    %r13d,%edi
  4012d1:	e8 1b fd ff ff       	callq  400ff1 <initialize_target>
  4012d6:	83 3d 2b 42 20 00 00 	cmpl   $0x0,0x20422b(%rip)        # 605508 <is_checker>
  4012dd:	74 09                	je     4012e8 <main+0x175>
  4012df:	44 39 35 1a 42 20 00 	cmp    %r14d,0x20421a(%rip)        # 605500 <authkey>
  4012e6:	75 34                	jne    40131c <main+0x1a9>
  4012e8:	8b 15 16 42 20 00    	mov    0x204216(%rip),%edx        # 605504 <cookie>
  4012ee:	be 52 31 40 00       	mov    $0x403152,%esi
  4012f3:	bf 01 00 00 00       	mov    $0x1,%edi
  4012f8:	b8 00 00 00 00       	mov    $0x0,%eax
  4012fd:	e8 de fa ff ff       	callq  400de0 <__printf_chk@plt>
  401302:	48 8b 3d 77 41 20 00 	mov    0x204177(%rip),%rdi        # 605480 <buf_offset>
  401309:	e8 69 0d 00 00       	callq  402077 <stable_launch>
  40130e:	b8 00 00 00 00       	mov    $0x0,%eax
  401313:	5b                   	pop    %rbx
  401314:	5d                   	pop    %rbp
  401315:	41 5c                	pop    %r12
  401317:	41 5d                	pop    %r13
  401319:	41 5e                	pop    %r14
  40131b:	c3                   	retq   
  40131c:	44 89 f2             	mov    %r14d,%edx
  40131f:	be 78 30 40 00       	mov    $0x403078,%esi
  401324:	bf 01 00 00 00       	mov    $0x1,%edi
  401329:	b8 00 00 00 00       	mov    $0x0,%eax
  40132e:	e8 ad fa ff ff       	callq  400de0 <__printf_chk@plt>
  401333:	b8 00 00 00 00       	mov    $0x0,%eax
  401338:	e8 d7 07 00 00       	callq  401b14 <check_fail>
  40133d:	eb a9                	jmp    4012e8 <main+0x175>

000000000040133f <scramble>:
  40133f:	48 83 ec 38          	sub    $0x38,%rsp
  401343:	64 48 8b 04 25 28 00 	mov    %fs:0x28,%rax
  40134a:	00 00 
  40134c:	48 89 44 24 28       	mov    %rax,0x28(%rsp)
  401351:	31 c0                	xor    %eax,%eax
  401353:	eb 10                	jmp    401365 <scramble+0x26>
  401355:	69 d0 ad b3 00 00    	imul   $0xb3ad,%eax,%edx
  40135b:	01 fa                	add    %edi,%edx
  40135d:	89 c1                	mov    %eax,%ecx
  40135f:	89 14 8c             	mov    %edx,(%rsp,%rcx,4)
  401362:	83 c0 01             	add    $0x1,%eax
  401365:	83 f8 09             	cmp    $0x9,%eax
  401368:	76 eb                	jbe    401355 <scramble+0x16>
  40136a:	8b 44 24 1c          	mov    0x1c(%rsp),%eax
  40136e:	69 c0 7f e8 00 00    	imul   $0xe87f,%eax,%eax
  401374:	89 44 24 1c          	mov    %eax,0x1c(%rsp)
  401378:	8b 44 24 24          	mov    0x24(%rsp),%eax
  40137c:	69 c0 9f 5b 00 00    	imul   $0x5b9f,%eax,%eax
  401382:	89 44 24 24          	mov    %eax,0x24(%rsp)
  401386:	8b 44 24 04          	mov    0x4(%rsp),%eax
  40138a:	69 c0 f1 4a 00 00    	imul   $0x4af1,%eax,%eax
  401390:	89 44 24 04          	mov    %eax,0x4(%rsp)
  401394:	8b 44 24 1c          	mov    0x1c(%rsp),%eax
  401398:	69 c0 79 f5 00 00    	imul   $0xf579,%eax,%eax
  40139e:	89 44 24 1c          	mov    %eax,0x1c(%rsp)
  4013a2:	8b 44 24 14          	mov    0x14(%rsp),%eax
  4013a6:	69 c0 39 20 00 00    	imul   $0x2039,%eax,%eax
  4013ac:	89 44 24 14          	mov    %eax,0x14(%rsp)
  4013b0:	8b 44 24 18          	mov    0x18(%rsp),%eax
  4013b4:	69 c0 93 33 00 00    	imul   $0x3393,%eax,%eax
  4013ba:	89 44 24 18          	mov    %eax,0x18(%rsp)
  4013be:	8b 44 24 20          	mov    0x20(%rsp),%eax
  4013c2:	69 c0 ae cd 00 00    	imul   $0xcdae,%eax,%eax
  4013c8:	89 44 24 20          	mov    %eax,0x20(%rsp)
  4013cc:	8b 44 24 1c          	mov    0x1c(%rsp),%eax
  4013d0:	69 c0 b0 c5 00 00    	imul   $0xc5b0,%eax,%eax
  4013d6:	89 44 24 1c          	mov    %eax,0x1c(%rsp)
  4013da:	8b 44 24 0c          	mov    0xc(%rsp),%eax
  4013de:	69 c0 7a 2a 00 00    	imul   $0x2a7a,%eax,%eax
  4013e4:	89 44 24 0c          	mov    %eax,0xc(%rsp)
  4013e8:	8b 44 24 04          	mov    0x4(%rsp),%eax
  4013ec:	69 c0 f2 72 00 00    	imul   $0x72f2,%eax,%eax
  4013f2:	89 44 24 04          	mov    %eax,0x4(%rsp)
  4013f6:	8b 44 24 20          	mov    0x20(%rsp),%eax
  4013fa:	69 c0 e5 76 00 00    	imul   $0x76e5,%eax,%eax
  401400:	89 44 24 20          	mov    %eax,0x20(%rsp)
  401404:	8b 44 24 0c          	mov    0xc(%rsp),%eax
  401408:	69 c0 23 e9 00 00    	imul   $0xe923,%eax,%eax
  40140e:	89 44 24 0c          	mov    %eax,0xc(%rsp)
  401412:	8b 04 24             	mov    (%rsp),%eax
  401415:	69 c0 d8 61 00 00    	imul   $0x61d8,%eax,%eax
  40141b:	89 04 24             	mov    %eax,(%rsp)
  40141e:	8b 44 24 20          	mov    0x20(%rsp),%eax
  401422:	69 c0 b7 83 00 00    	imul   $0x83b7,%eax,%eax
  401428:	89 44 24 20          	mov    %eax,0x20(%rsp)
  40142c:	8b 44 24 1c          	mov    0x1c(%rsp),%eax
  401430:	69 c0 ec a3 00 00    	imul   $0xa3ec,%eax,%eax
  401436:	89 44 24 1c          	mov    %eax,0x1c(%rsp)
  40143a:	8b 44 24 18          	mov    0x18(%rsp),%eax
  40143e:	69 c0 88 d5 00 00    	imul   $0xd588,%eax,%eax
  401444:	89 44 24 18          	mov    %eax,0x18(%rsp)
  401448:	8b 44 24 1c          	mov    0x1c(%rsp),%eax
  40144c:	69 c0 74 60 00 00    	imul   $0x6074,%eax,%eax
  401452:	89 44 24 1c          	mov    %eax,0x1c(%rsp)
  401456:	8b 44 24 04          	mov    0x4(%rsp),%eax
  40145a:	69 c0 7b e4 00 00    	imul   $0xe47b,%eax,%eax
  401460:	89 44 24 04          	mov    %eax,0x4(%rsp)
  401464:	8b 44 24 04          	mov    0x4(%rsp),%eax
  401468:	69 c0 8e 4a 00 00    	imul   $0x4a8e,%eax,%eax
  40146e:	89 44 24 04          	mov    %eax,0x4(%rsp)
  401472:	8b 44 24 04          	mov    0x4(%rsp),%eax
  401476:	69 c0 1d 49 00 00    	imul   $0x491d,%eax,%eax
  40147c:	89 44 24 04          	mov    %eax,0x4(%rsp)
  401480:	8b 04 24             	mov    (%rsp),%eax
  401483:	69 c0 d2 2a 00 00    	imul   $0x2ad2,%eax,%eax
  401489:	89 04 24             	mov    %eax,(%rsp)
  40148c:	8b 04 24             	mov    (%rsp),%eax
  40148f:	69 c0 4f 75 00 00    	imul   $0x754f,%eax,%eax
  401495:	89 04 24             	mov    %eax,(%rsp)
  401498:	8b 44 24 1c          	mov    0x1c(%rsp),%eax
  40149c:	69 c0 9a 86 00 00    	imul   $0x869a,%eax,%eax
  4014a2:	89 44 24 1c          	mov    %eax,0x1c(%rsp)
  4014a6:	8b 44 24 10          	mov    0x10(%rsp),%eax
  4014aa:	69 c0 bd f7 00 00    	imul   $0xf7bd,%eax,%eax
  4014b0:	89 44 24 10          	mov    %eax,0x10(%rsp)
  4014b4:	8b 44 24 14          	mov    0x14(%rsp),%eax
  4014b8:	69 c0 06 d7 00 00    	imul   $0xd706,%eax,%eax
  4014be:	89 44 24 14          	mov    %eax,0x14(%rsp)
  4014c2:	8b 44 24 14          	mov    0x14(%rsp),%eax
  4014c6:	69 c0 9d fd 00 00    	imul   $0xfd9d,%eax,%eax
  4014cc:	89 44 24 14          	mov    %eax,0x14(%rsp)
  4014d0:	8b 04 24             	mov    (%rsp),%eax
  4014d3:	69 c0 e4 5e 00 00    	imul   $0x5ee4,%eax,%eax
  4014d9:	89 04 24             	mov    %eax,(%rsp)
  4014dc:	8b 44 24 10          	mov    0x10(%rsp),%eax
  4014e0:	69 c0 41 1f 00 00    	imul   $0x1f41,%eax,%eax
  4014e6:	89 44 24 10          	mov    %eax,0x10(%rsp)
  4014ea:	8b 04 24             	mov    (%rsp),%eax
  4014ed:	69 c0 0e d6 00 00    	imul   $0xd60e,%eax,%eax
  4014f3:	89 04 24             	mov    %eax,(%rsp)
  4014f6:	8b 44 24 24          	mov    0x24(%rsp),%eax
  4014fa:	69 c0 96 e2 00 00    	imul   $0xe296,%eax,%eax
  401500:	89 44 24 24          	mov    %eax,0x24(%rsp)
  401504:	8b 44 24 20          	mov    0x20(%rsp),%eax
  401508:	69 c0 69 b2 00 00    	imul   $0xb269,%eax,%eax
  40150e:	89 44 24 20          	mov    %eax,0x20(%rsp)
  401512:	8b 44 24 14          	mov    0x14(%rsp),%eax
  401516:	69 c0 67 06 00 00    	imul   $0x667,%eax,%eax
  40151c:	89 44 24 14          	mov    %eax,0x14(%rsp)
  401520:	8b 44 24 08          	mov    0x8(%rsp),%eax
  401524:	69 c0 45 e9 00 00    	imul   $0xe945,%eax,%eax
  40152a:	89 44 24 08          	mov    %eax,0x8(%rsp)
  40152e:	8b 44 24 14          	mov    0x14(%rsp),%eax
  401532:	69 c0 43 be 00 00    	imul   $0xbe43,%eax,%eax
  401538:	89 44 24 14          	mov    %eax,0x14(%rsp)
  40153c:	8b 04 24             	mov    (%rsp),%eax
  40153f:	69 c0 d7 c4 00 00    	imul   $0xc4d7,%eax,%eax
  401545:	89 04 24             	mov    %eax,(%rsp)
  401548:	8b 44 24 04          	mov    0x4(%rsp),%eax
  40154c:	69 c0 9a 9e 00 00    	imul   $0x9e9a,%eax,%eax
  401552:	89 44 24 04          	mov    %eax,0x4(%rsp)
  401556:	8b 44 24 18          	mov    0x18(%rsp),%eax
  40155a:	69 c0 10 84 00 00    	imul   $0x8410,%eax,%eax
  401560:	89 44 24 18          	mov    %eax,0x18(%rsp)
  401564:	8b 44 24 0c          	mov    0xc(%rsp),%eax
  401568:	69 c0 2a e8 00 00    	imul   $0xe82a,%eax,%eax
  40156e:	89 44 24 0c          	mov    %eax,0xc(%rsp)
  401572:	8b 44 24 04          	mov    0x4(%rsp),%eax
  401576:	69 c0 e9 4e 00 00    	imul   $0x4ee9,%eax,%eax
  40157c:	89 44 24 04          	mov    %eax,0x4(%rsp)
  401580:	8b 44 24 10          	mov    0x10(%rsp),%eax
  401584:	69 c0 bf bb 00 00    	imul   $0xbbbf,%eax,%eax
  40158a:	89 44 24 10          	mov    %eax,0x10(%rsp)
  40158e:	8b 44 24 14          	mov    0x14(%rsp),%eax
  401592:	69 c0 97 4a 00 00    	imul   $0x4a97,%eax,%eax
  401598:	89 44 24 14          	mov    %eax,0x14(%rsp)
  40159c:	8b 44 24 0c          	mov    0xc(%rsp),%eax
  4015a0:	69 c0 db 73 00 00    	imul   $0x73db,%eax,%eax
  4015a6:	89 44 24 0c          	mov    %eax,0xc(%rsp)
  4015aa:	8b 04 24             	mov    (%rsp),%eax
  4015ad:	69 c0 1d a0 00 00    	imul   $0xa01d,%eax,%eax
  4015b3:	89 04 24             	mov    %eax,(%rsp)
  4015b6:	8b 04 24             	mov    (%rsp),%eax
  4015b9:	69 c0 37 6a 00 00    	imul   $0x6a37,%eax,%eax
  4015bf:	89 04 24             	mov    %eax,(%rsp)
  4015c2:	8b 44 24 04          	mov    0x4(%rsp),%eax
  4015c6:	69 c0 15 36 00 00    	imul   $0x3615,%eax,%eax
  4015cc:	89 44 24 04          	mov    %eax,0x4(%rsp)
  4015d0:	8b 04 24             	mov    (%rsp),%eax
  4015d3:	69 c0 27 f0 00 00    	imul   $0xf027,%eax,%eax
  4015d9:	89 04 24             	mov    %eax,(%rsp)
  4015dc:	8b 44 24 18          	mov    0x18(%rsp),%eax
  4015e0:	69 c0 ec 04 00 00    	imul   $0x4ec,%eax,%eax
  4015e6:	89 44 24 18          	mov    %eax,0x18(%rsp)
  4015ea:	8b 44 24 1c          	mov    0x1c(%rsp),%eax
  4015ee:	69 c0 5c fb 00 00    	imul   $0xfb5c,%eax,%eax
  4015f4:	89 44 24 1c          	mov    %eax,0x1c(%rsp)
  4015f8:	8b 44 24 14          	mov    0x14(%rsp),%eax
  4015fc:	69 c0 70 e1 00 00    	imul   $0xe170,%eax,%eax
  401602:	89 44 24 14          	mov    %eax,0x14(%rsp)
  401606:	8b 44 24 10          	mov    0x10(%rsp),%eax
  40160a:	69 c0 05 22 00 00    	imul   $0x2205,%eax,%eax
  401610:	89 44 24 10          	mov    %eax,0x10(%rsp)
  401614:	8b 44 24 04          	mov    0x4(%rsp),%eax
  401618:	69 c0 ff c0 00 00    	imul   $0xc0ff,%eax,%eax
  40161e:	89 44 24 04          	mov    %eax,0x4(%rsp)
  401622:	8b 44 24 1c          	mov    0x1c(%rsp),%eax
  401626:	69 c0 f1 95 00 00    	imul   $0x95f1,%eax,%eax
  40162c:	89 44 24 1c          	mov    %eax,0x1c(%rsp)
  401630:	8b 44 24 24          	mov    0x24(%rsp),%eax
  401634:	69 c0 89 d4 00 00    	imul   $0xd489,%eax,%eax
  40163a:	89 44 24 24          	mov    %eax,0x24(%rsp)
  40163e:	8b 44 24 04          	mov    0x4(%rsp),%eax
  401642:	69 c0 ba 4f 00 00    	imul   $0x4fba,%eax,%eax
  401648:	89 44 24 04          	mov    %eax,0x4(%rsp)
  40164c:	8b 04 24             	mov    (%rsp),%eax
  40164f:	69 c0 03 5e 00 00    	imul   $0x5e03,%eax,%eax
  401655:	89 04 24             	mov    %eax,(%rsp)
  401658:	8b 04 24             	mov    (%rsp),%eax
  40165b:	69 c0 63 49 00 00    	imul   $0x4963,%eax,%eax
  401661:	89 04 24             	mov    %eax,(%rsp)
  401664:	8b 44 24 20          	mov    0x20(%rsp),%eax
  401668:	69 c0 d7 c4 00 00    	imul   $0xc4d7,%eax,%eax
  40166e:	89 44 24 20          	mov    %eax,0x20(%rsp)
  401672:	8b 44 24 10          	mov    0x10(%rsp),%eax
  401676:	69 c0 15 52 00 00    	imul   $0x5215,%eax,%eax
  40167c:	89 44 24 10          	mov    %eax,0x10(%rsp)
  401680:	8b 44 24 08          	mov    0x8(%rsp),%eax
  401684:	69 c0 5b 50 00 00    	imul   $0x505b,%eax,%eax
  40168a:	89 44 24 08          	mov    %eax,0x8(%rsp)
  40168e:	8b 44 24 08          	mov    0x8(%rsp),%eax
  401692:	69 c0 20 db 00 00    	imul   $0xdb20,%eax,%eax
  401698:	89 44 24 08          	mov    %eax,0x8(%rsp)
  40169c:	8b 44 24 0c          	mov    0xc(%rsp),%eax
  4016a0:	69 c0 19 09 00 00    	imul   $0x919,%eax,%eax
  4016a6:	89 44 24 0c          	mov    %eax,0xc(%rsp)
  4016aa:	8b 44 24 14          	mov    0x14(%rsp),%eax
  4016ae:	69 c0 ee 6e 00 00    	imul   $0x6eee,%eax,%eax
  4016b4:	89 44 24 14          	mov    %eax,0x14(%rsp)
  4016b8:	8b 44 24 20          	mov    0x20(%rsp),%eax
  4016bc:	69 c0 d5 c1 00 00    	imul   $0xc1d5,%eax,%eax
  4016c2:	89 44 24 20          	mov    %eax,0x20(%rsp)
  4016c6:	8b 04 24             	mov    (%rsp),%eax
  4016c9:	69 c0 37 fc 00 00    	imul   $0xfc37,%eax,%eax
  4016cf:	89 04 24             	mov    %eax,(%rsp)
  4016d2:	8b 44 24 20          	mov    0x20(%rsp),%eax
  4016d6:	69 c0 e9 23 00 00    	imul   $0x23e9,%eax,%eax
  4016dc:	89 44 24 20          	mov    %eax,0x20(%rsp)
  4016e0:	8b 04 24             	mov    (%rsp),%eax
  4016e3:	69 c0 8e 49 00 00    	imul   $0x498e,%eax,%eax
  4016e9:	89 04 24             	mov    %eax,(%rsp)
  4016ec:	8b 44 24 04          	mov    0x4(%rsp),%eax
  4016f0:	69 c0 db de 00 00    	imul   $0xdedb,%eax,%eax
  4016f6:	89 44 24 04          	mov    %eax,0x4(%rsp)
  4016fa:	8b 44 24 24          	mov    0x24(%rsp),%eax
  4016fe:	69 c0 f8 29 00 00    	imul   $0x29f8,%eax,%eax
  401704:	89 44 24 24          	mov    %eax,0x24(%rsp)
  401708:	8b 04 24             	mov    (%rsp),%eax
  40170b:	69 c0 9b 5d 00 00    	imul   $0x5d9b,%eax,%eax
  401711:	89 04 24             	mov    %eax,(%rsp)
  401714:	8b 44 24 18          	mov    0x18(%rsp),%eax
  401718:	69 c0 d8 d6 00 00    	imul   $0xd6d8,%eax,%eax
  40171e:	89 44 24 18          	mov    %eax,0x18(%rsp)
  401722:	8b 44 24 24          	mov    0x24(%rsp),%eax
  401726:	69 c0 2c 85 00 00    	imul   $0x852c,%eax,%eax
  40172c:	89 44 24 24          	mov    %eax,0x24(%rsp)
  401730:	8b 44 24 1c          	mov    0x1c(%rsp),%eax
  401734:	69 c0 38 64 00 00    	imul   $0x6438,%eax,%eax
  40173a:	89 44 24 1c          	mov    %eax,0x1c(%rsp)
  40173e:	8b 44 24 0c          	mov    0xc(%rsp),%eax
  401742:	69 c0 79 dd 00 00    	imul   $0xdd79,%eax,%eax
  401748:	89 44 24 0c          	mov    %eax,0xc(%rsp)
  40174c:	8b 04 24             	mov    (%rsp),%eax
  40174f:	69 c0 f8 ae 00 00    	imul   $0xaef8,%eax,%eax
  401755:	89 04 24             	mov    %eax,(%rsp)
  401758:	8b 44 24 20          	mov    0x20(%rsp),%eax
  40175c:	69 c0 99 72 00 00    	imul   $0x7299,%eax,%eax
  401762:	89 44 24 20          	mov    %eax,0x20(%rsp)
  401766:	8b 44 24 08          	mov    0x8(%rsp),%eax
  40176a:	69 c0 44 b4 00 00    	imul   $0xb444,%eax,%eax
  401770:	89 44 24 08          	mov    %eax,0x8(%rsp)
  401774:	8b 44 24 14          	mov    0x14(%rsp),%eax
  401778:	69 c0 60 55 00 00    	imul   $0x5560,%eax,%eax
  40177e:	89 44 24 14          	mov    %eax,0x14(%rsp)
  401782:	8b 44 24 0c          	mov    0xc(%rsp),%eax
  401786:	69 c0 b8 89 00 00    	imul   $0x89b8,%eax,%eax
  40178c:	89 44 24 0c          	mov    %eax,0xc(%rsp)
  401790:	8b 44 24 0c          	mov    0xc(%rsp),%eax
  401794:	69 c0 7d 8d 00 00    	imul   $0x8d7d,%eax,%eax
  40179a:	89 44 24 0c          	mov    %eax,0xc(%rsp)
  40179e:	8b 44 24 04          	mov    0x4(%rsp),%eax
  4017a2:	69 c0 7b ba 00 00    	imul   $0xba7b,%eax,%eax
  4017a8:	89 44 24 04          	mov    %eax,0x4(%rsp)
  4017ac:	8b 44 24 04          	mov    0x4(%rsp),%eax
  4017b0:	69 c0 2b a4 00 00    	imul   $0xa42b,%eax,%eax
  4017b6:	89 44 24 04          	mov    %eax,0x4(%rsp)
  4017ba:	8b 44 24 10          	mov    0x10(%rsp),%eax
  4017be:	69 c0 4f 96 00 00    	imul   $0x964f,%eax,%eax
  4017c4:	89 44 24 10          	mov    %eax,0x10(%rsp)
  4017c8:	8b 44 24 24          	mov    0x24(%rsp),%eax
  4017cc:	69 c0 89 e3 00 00    	imul   $0xe389,%eax,%eax
  4017d2:	89 44 24 24          	mov    %eax,0x24(%rsp)
  4017d6:	8b 44 24 20          	mov    0x20(%rsp),%eax
  4017da:	69 c0 6b 36 00 00    	imul   $0x366b,%eax,%eax
  4017e0:	89 44 24 20          	mov    %eax,0x20(%rsp)
  4017e4:	8b 44 24 1c          	mov    0x1c(%rsp),%eax
  4017e8:	69 c0 fa 39 00 00    	imul   $0x39fa,%eax,%eax
  4017ee:	89 44 24 1c          	mov    %eax,0x1c(%rsp)
  4017f2:	8b 44 24 08          	mov    0x8(%rsp),%eax
  4017f6:	69 c0 c2 fc 00 00    	imul   $0xfcc2,%eax,%eax
  4017fc:	89 44 24 08          	mov    %eax,0x8(%rsp)
  401800:	8b 44 24 08          	mov    0x8(%rsp),%eax
  401804:	69 c0 7e 2d 00 00    	imul   $0x2d7e,%eax,%eax
  40180a:	89 44 24 08          	mov    %eax,0x8(%rsp)
  40180e:	8b 04 24             	mov    (%rsp),%eax
  401811:	69 c0 2a 09 00 00    	imul   $0x92a,%eax,%eax
  401817:	89 04 24             	mov    %eax,(%rsp)
  40181a:	8b 44 24 10          	mov    0x10(%rsp),%eax
  40181e:	69 c0 47 17 00 00    	imul   $0x1747,%eax,%eax
  401824:	89 44 24 10          	mov    %eax,0x10(%rsp)
  401828:	8b 44 24 10          	mov    0x10(%rsp),%eax
  40182c:	69 c0 cc 38 00 00    	imul   $0x38cc,%eax,%eax
  401832:	89 44 24 10          	mov    %eax,0x10(%rsp)
  401836:	8b 44 24 0c          	mov    0xc(%rsp),%eax
  40183a:	69 c0 3a 42 00 00    	imul   $0x423a,%eax,%eax
  401840:	89 44 24 0c          	mov    %eax,0xc(%rsp)
  401844:	8b 44 24 18          	mov    0x18(%rsp),%eax
  401848:	69 c0 92 05 00 00    	imul   $0x592,%eax,%eax
  40184e:	89 44 24 18          	mov    %eax,0x18(%rsp)
  401852:	8b 44 24 10          	mov    0x10(%rsp),%eax
  401856:	69 c0 44 10 00 00    	imul   $0x1044,%eax,%eax
  40185c:	89 44 24 10          	mov    %eax,0x10(%rsp)
  401860:	8b 44 24 1c          	mov    0x1c(%rsp),%eax
  401864:	69 c0 d0 ae 00 00    	imul   $0xaed0,%eax,%eax
  40186a:	89 44 24 1c          	mov    %eax,0x1c(%rsp)
  40186e:	8b 44 24 24          	mov    0x24(%rsp),%eax
  401872:	69 c0 39 15 00 00    	imul   $0x1539,%eax,%eax
  401878:	89 44 24 24          	mov    %eax,0x24(%rsp)
  40187c:	8b 44 24 10          	mov    0x10(%rsp),%eax
  401880:	69 c0 28 4f 00 00    	imul   $0x4f28,%eax,%eax
  401886:	89 44 24 10          	mov    %eax,0x10(%rsp)
  40188a:	ba 00 00 00 00       	mov    $0x0,%edx
  40188f:	b8 00 00 00 00       	mov    $0x0,%eax
  401894:	eb 0a                	jmp    4018a0 <scramble+0x561>
  401896:	89 d1                	mov    %edx,%ecx
  401898:	8b 0c 8c             	mov    (%rsp,%rcx,4),%ecx
  40189b:	01 c8                	add    %ecx,%eax
  40189d:	83 c2 01             	add    $0x1,%edx
  4018a0:	83 fa 09             	cmp    $0x9,%edx
  4018a3:	76 f1                	jbe    401896 <scramble+0x557>
  4018a5:	48 8b 74 24 28       	mov    0x28(%rsp),%rsi
  4018aa:	64 48 33 34 25 28 00 	xor    %fs:0x28,%rsi
  4018b1:	00 00 
  4018b3:	75 05                	jne    4018ba <scramble+0x57b>
  4018b5:	48 83 c4 38          	add    $0x38,%rsp
  4018b9:	c3                   	retq   
  4018ba:	e8 21 f4 ff ff       	callq  400ce0 <__stack_chk_fail@plt>

00000000004018bf <getbuf>:
  4018bf:	48 83 ec 28          	sub    $0x28,%rsp
  4018c3:	48 89 e7             	mov    %rsp,%rdi
  4018c6:	e8 7e 02 00 00       	callq  401b49 <Gets>
  4018cb:	b8 01 00 00 00       	mov    $0x1,%eax
  4018d0:	48 83 c4 28          	add    $0x28,%rsp
  4018d4:	c3                   	retq   

00000000004018d5 <touch1>:
  4018d5:	48 83 ec 08          	sub    $0x8,%rsp
  4018d9:	c7 05 19 3c 20 00 01 	movl   $0x1,0x203c19(%rip)        # 6054fc <vlevel>
  4018e0:	00 00 00 
  4018e3:	bf 3a 32 40 00       	mov    $0x40323a,%edi
  4018e8:	e8 d3 f3 ff ff       	callq  400cc0 <puts@plt>
  4018ed:	bf 01 00 00 00       	mov    $0x1,%edi
  4018f2:	e8 a7 04 00 00       	callq  401d9e <validate>
  4018f7:	bf 00 00 00 00       	mov    $0x0,%edi
  4018fc:	e8 2f f5 ff ff       	callq  400e30 <exit@plt>

0000000000401901 <touch2>:
  401901:	48 83 ec 08          	sub    $0x8,%rsp
  401905:	89 fa                	mov    %edi,%edx
  401907:	c7 05 eb 3b 20 00 02 	movl   $0x2,0x203beb(%rip)        # 6054fc <vlevel>
  40190e:	00 00 00 
  401911:	39 3d ed 3b 20 00    	cmp    %edi,0x203bed(%rip)        # 605504 <cookie>
  401917:	74 28                	je     401941 <touch2+0x40>
  401919:	be 88 32 40 00       	mov    $0x403288,%esi
  40191e:	bf 01 00 00 00       	mov    $0x1,%edi
  401923:	b8 00 00 00 00       	mov    $0x0,%eax
  401928:	e8 b3 f4 ff ff       	callq  400de0 <__printf_chk@plt>
  40192d:	bf 02 00 00 00       	mov    $0x2,%edi
  401932:	e8 2c 05 00 00       	callq  401e63 <fail>
  401937:	bf 00 00 00 00       	mov    $0x0,%edi
  40193c:	e8 ef f4 ff ff       	callq  400e30 <exit@plt>
  401941:	be 60 32 40 00       	mov    $0x403260,%esi
  401946:	bf 01 00 00 00       	mov    $0x1,%edi
  40194b:	b8 00 00 00 00       	mov    $0x0,%eax
  401950:	e8 8b f4 ff ff       	callq  400de0 <__printf_chk@plt>
  401955:	bf 02 00 00 00       	mov    $0x2,%edi
  40195a:	e8 3f 04 00 00       	callq  401d9e <validate>
  40195f:	eb d6                	jmp    401937 <touch2+0x36>

0000000000401961 <hexmatch>:
  401961:	41 54                	push   %r12
  401963:	55                   	push   %rbp
  401964:	53                   	push   %rbx
  401965:	48 83 c4 80          	add    $0xffffffffffffff80,%rsp
  401969:	89 fd                	mov    %edi,%ebp
  40196b:	48 89 f3             	mov    %rsi,%rbx
  40196e:	64 48 8b 04 25 28 00 	mov    %fs:0x28,%rax
  401975:	00 00 
  401977:	48 89 44 24 78       	mov    %rax,0x78(%rsp)
  40197c:	31 c0                	xor    %eax,%eax
  40197e:	e8 1d f4 ff ff       	callq  400da0 <random@plt>
  401983:	48 89 c1             	mov    %rax,%rcx
  401986:	48 ba 0b d7 a3 70 3d 	movabs $0xa3d70a3d70a3d70b,%rdx
  40198d:	0a d7 a3 
  401990:	48 f7 ea             	imul   %rdx
  401993:	48 01 ca             	add    %rcx,%rdx
  401996:	48 c1 fa 06          	sar    $0x6,%rdx
  40199a:	48 89 c8             	mov    %rcx,%rax
  40199d:	48 c1 f8 3f          	sar    $0x3f,%rax
  4019a1:	48 29 c2             	sub    %rax,%rdx
  4019a4:	48 8d 04 92          	lea    (%rdx,%rdx,4),%rax
  4019a8:	48 8d 14 80          	lea    (%rax,%rax,4),%rdx
  4019ac:	48 8d 04 95 00 00 00 	lea    0x0(,%rdx,4),%rax
  4019b3:	00 
  4019b4:	48 29 c1             	sub    %rax,%rcx
  4019b7:	4c 8d 24 0c          	lea    (%rsp,%rcx,1),%r12
  4019bb:	41 89 e8             	mov    %ebp,%r8d
  4019be:	b9 57 32 40 00       	mov    $0x403257,%ecx
  4019c3:	48 c7 c2 ff ff ff ff 	mov    $0xffffffffffffffff,%rdx
  4019ca:	be 01 00 00 00       	mov    $0x1,%esi
  4019cf:	4c 89 e7             	mov    %r12,%rdi
  4019d2:	b8 00 00 00 00       	mov    $0x0,%eax
  4019d7:	e8 84 f4 ff ff       	callq  400e60 <__sprintf_chk@plt>
  4019dc:	ba 09 00 00 00       	mov    $0x9,%edx
  4019e1:	4c 89 e6             	mov    %r12,%rsi
  4019e4:	48 89 df             	mov    %rbx,%rdi
  4019e7:	e8 b4 f2 ff ff       	callq  400ca0 <strncmp@plt>
  4019ec:	85 c0                	test   %eax,%eax
  4019ee:	0f 94 c0             	sete   %al
  4019f1:	48 8b 5c 24 78       	mov    0x78(%rsp),%rbx
  4019f6:	64 48 33 1c 25 28 00 	xor    %fs:0x28,%rbx
  4019fd:	00 00 
  4019ff:	75 0c                	jne    401a0d <hexmatch+0xac>
  401a01:	0f b6 c0             	movzbl %al,%eax
  401a04:	48 83 ec 80          	sub    $0xffffffffffffff80,%rsp
  401a08:	5b                   	pop    %rbx
  401a09:	5d                   	pop    %rbp
  401a0a:	41 5c                	pop    %r12
  401a0c:	c3                   	retq   
  401a0d:	e8 ce f2 ff ff       	callq  400ce0 <__stack_chk_fail@plt>

0000000000401a12 <touch3>:
  401a12:	53                   	push   %rbx
  401a13:	48 89 fb             	mov    %rdi,%rbx
  401a16:	c7 05 dc 3a 20 00 03 	movl   $0x3,0x203adc(%rip)        # 6054fc <vlevel>
  401a1d:	00 00 00 
  401a20:	48 89 fe             	mov    %rdi,%rsi
  401a23:	8b 3d db 3a 20 00    	mov    0x203adb(%rip),%edi        # 605504 <cookie>
  401a29:	e8 33 ff ff ff       	callq  401961 <hexmatch>
  401a2e:	85 c0                	test   %eax,%eax
  401a30:	74 2b                	je     401a5d <touch3+0x4b>
  401a32:	48 89 da             	mov    %rbx,%rdx
  401a35:	be b0 32 40 00       	mov    $0x4032b0,%esi
  401a3a:	bf 01 00 00 00       	mov    $0x1,%edi
  401a3f:	b8 00 00 00 00       	mov    $0x0,%eax
  401a44:	e8 97 f3 ff ff       	callq  400de0 <__printf_chk@plt>
  401a49:	bf 03 00 00 00       	mov    $0x3,%edi
  401a4e:	e8 4b 03 00 00       	callq  401d9e <validate>
  401a53:	bf 00 00 00 00       	mov    $0x0,%edi
  401a58:	e8 d3 f3 ff ff       	callq  400e30 <exit@plt>
  401a5d:	48 89 da             	mov    %rbx,%rdx
  401a60:	be d8 32 40 00       	mov    $0x4032d8,%esi
  401a65:	bf 01 00 00 00       	mov    $0x1,%edi
  401a6a:	b8 00 00 00 00       	mov    $0x0,%eax
  401a6f:	e8 6c f3 ff ff       	callq  400de0 <__printf_chk@plt>
  401a74:	bf 03 00 00 00       	mov    $0x3,%edi
  401a79:	e8 e5 03 00 00       	callq  401e63 <fail>
  401a7e:	eb d3                	jmp    401a53 <touch3+0x41>

0000000000401a80 <test>:
  401a80:	48 83 ec 08          	sub    $0x8,%rsp
  401a84:	b8 00 00 00 00       	mov    $0x0,%eax
  401a89:	e8 31 fe ff ff       	callq  4018bf <getbuf>
  401a8e:	89 c2                	mov    %eax,%edx
  401a90:	be 00 33 40 00       	mov    $0x403300,%esi
  401a95:	bf 01 00 00 00       	mov    $0x1,%edi
  401a9a:	b8 00 00 00 00       	mov    $0x0,%eax
  401a9f:	e8 3c f3 ff ff       	callq  400de0 <__printf_chk@plt>
  401aa4:	48 83 c4 08          	add    $0x8,%rsp
  401aa8:	c3                   	retq   

0000000000401aa9 <save_char>:
  401aa9:	8b 05 75 46 20 00    	mov    0x204675(%rip),%eax        # 606124 <gets_cnt>
  401aaf:	3d ff 03 00 00       	cmp    $0x3ff,%eax
  401ab4:	7f 49                	jg     401aff <save_char+0x56>
  401ab6:	89 f9                	mov    %edi,%ecx
  401ab8:	c0 e9 04             	shr    $0x4,%cl
  401abb:	8d 14 40             	lea    (%rax,%rax,2),%edx
  401abe:	83 e1 0f             	and    $0xf,%ecx
  401ac1:	0f b6 b1 20 36 40 00 	movzbl 0x403620(%rcx),%esi
  401ac8:	48 63 ca             	movslq %edx,%rcx
  401acb:	40 88 b1 20 55 60 00 	mov    %sil,0x605520(%rcx)
  401ad2:	8d 4a 01             	lea    0x1(%rdx),%ecx
  401ad5:	83 e7 0f             	and    $0xf,%edi
  401ad8:	0f b6 b7 20 36 40 00 	movzbl 0x403620(%rdi),%esi
  401adf:	48 63 c9             	movslq %ecx,%rcx
  401ae2:	40 88 b1 20 55 60 00 	mov    %sil,0x605520(%rcx)
  401ae9:	83 c2 02             	add    $0x2,%edx
  401aec:	48 63 d2             	movslq %edx,%rdx
  401aef:	c6 82 20 55 60 00 20 	movb   $0x20,0x605520(%rdx)
  401af6:	83 c0 01             	add    $0x1,%eax
  401af9:	89 05 25 46 20 00    	mov    %eax,0x204625(%rip)        # 606124 <gets_cnt>
  401aff:	f3 c3                	repz retq 

0000000000401b01 <save_term>:
  401b01:	8b 05 1d 46 20 00    	mov    0x20461d(%rip),%eax        # 606124 <gets_cnt>
  401b07:	8d 04 40             	lea    (%rax,%rax,2),%eax
  401b0a:	48 98                	cltq   
  401b0c:	c6 80 20 55 60 00 00 	movb   $0x0,0x605520(%rax)
  401b13:	c3                   	retq   

0000000000401b14 <check_fail>:
  401b14:	48 83 ec 08          	sub    $0x8,%rsp
  401b18:	0f be 15 09 46 20 00 	movsbl 0x204609(%rip),%edx        # 606128 <target_prefix>
  401b1f:	41 b8 20 55 60 00    	mov    $0x605520,%r8d
  401b25:	8b 0d cd 39 20 00    	mov    0x2039cd(%rip),%ecx        # 6054f8 <check_level>
  401b2b:	be 23 33 40 00       	mov    $0x403323,%esi
  401b30:	bf 01 00 00 00       	mov    $0x1,%edi
  401b35:	b8 00 00 00 00       	mov    $0x0,%eax
  401b3a:	e8 a1 f2 ff ff       	callq  400de0 <__printf_chk@plt>
  401b3f:	bf 01 00 00 00       	mov    $0x1,%edi
  401b44:	e8 e7 f2 ff ff       	callq  400e30 <exit@plt>

0000000000401b49 <Gets>:
  401b49:	41 54                	push   %r12
  401b4b:	55                   	push   %rbp
  401b4c:	53                   	push   %rbx
  401b4d:	49 89 fc             	mov    %rdi,%r12
  401b50:	c7 05 ca 45 20 00 00 	movl   $0x0,0x2045ca(%rip)        # 606124 <gets_cnt>
  401b57:	00 00 00 
  401b5a:	48 89 fb             	mov    %rdi,%rbx
  401b5d:	eb 11                	jmp    401b70 <Gets+0x27>
  401b5f:	48 8d 6b 01          	lea    0x1(%rbx),%rbp
  401b63:	88 03                	mov    %al,(%rbx)
  401b65:	0f b6 f8             	movzbl %al,%edi
  401b68:	e8 3c ff ff ff       	callq  401aa9 <save_char>
  401b6d:	48 89 eb             	mov    %rbp,%rbx
  401b70:	48 8b 3d 79 39 20 00 	mov    0x203979(%rip),%rdi        # 6054f0 <infile>
  401b77:	e8 34 f2 ff ff       	callq  400db0 <_IO_getc@plt>
  401b7c:	83 f8 ff             	cmp    $0xffffffff,%eax
  401b7f:	74 05                	je     401b86 <Gets+0x3d>
  401b81:	83 f8 0a             	cmp    $0xa,%eax
  401b84:	75 d9                	jne    401b5f <Gets+0x16>
  401b86:	c6 03 00             	movb   $0x0,(%rbx)
  401b89:	b8 00 00 00 00       	mov    $0x0,%eax
  401b8e:	e8 6e ff ff ff       	callq  401b01 <save_term>
  401b93:	4c 89 e0             	mov    %r12,%rax
  401b96:	5b                   	pop    %rbx
  401b97:	5d                   	pop    %rbp
  401b98:	41 5c                	pop    %r12
  401b9a:	c3                   	retq   

0000000000401b9b <notify_server>:
  401b9b:	55                   	push   %rbp
  401b9c:	53                   	push   %rbx
  401b9d:	48 81 ec 18 40 00 00 	sub    $0x4018,%rsp
  401ba4:	64 48 8b 04 25 28 00 	mov    %fs:0x28,%rax
  401bab:	00 00 
  401bad:	48 89 84 24 08 40 00 	mov    %rax,0x4008(%rsp)
  401bb4:	00 
  401bb5:	31 c0                	xor    %eax,%eax
  401bb7:	83 3d 4a 39 20 00 00 	cmpl   $0x0,0x20394a(%rip)        # 605508 <is_checker>
  401bbe:	0f 85 c9 00 00 00    	jne    401c8d <notify_server+0xf2>
  401bc4:	89 fb                	mov    %edi,%ebx
  401bc6:	8b 05 58 45 20 00    	mov    0x204558(%rip),%eax        # 606124 <gets_cnt>
  401bcc:	83 c0 64             	add    $0x64,%eax
  401bcf:	3d 00 20 00 00       	cmp    $0x2000,%eax
  401bd4:	0f 8f d4 00 00 00    	jg     401cae <notify_server+0x113>
  401bda:	0f be 05 47 45 20 00 	movsbl 0x204547(%rip),%eax        # 606128 <target_prefix>
  401be1:	83 3d a0 38 20 00 00 	cmpl   $0x0,0x2038a0(%rip)        # 605488 <notify>
  401be8:	0f 84 de 00 00 00    	je     401ccc <notify_server+0x131>
  401bee:	8b 15 0c 39 20 00    	mov    0x20390c(%rip),%edx        # 605500 <authkey>
  401bf4:	85 db                	test   %ebx,%ebx
  401bf6:	0f 84 da 00 00 00    	je     401cd6 <notify_server+0x13b>
  401bfc:	bd 39 33 40 00       	mov    $0x403339,%ebp
  401c01:	68 20 55 60 00       	pushq  $0x605520
  401c06:	56                   	push   %rsi
  401c07:	50                   	push   %rax
  401c08:	52                   	push   %rdx
  401c09:	49 89 e9             	mov    %rbp,%r9
  401c0c:	44 8b 05 35 35 20 00 	mov    0x203535(%rip),%r8d        # 605148 <target_id>
  401c13:	b9 43 33 40 00       	mov    $0x403343,%ecx
  401c18:	ba 00 20 00 00       	mov    $0x2000,%edx
  401c1d:	be 01 00 00 00       	mov    $0x1,%esi
  401c22:	48 8d 7c 24 20       	lea    0x20(%rsp),%rdi
  401c27:	b8 00 00 00 00       	mov    $0x0,%eax
  401c2c:	e8 2f f2 ff ff       	callq  400e60 <__sprintf_chk@plt>
  401c31:	48 83 c4 20          	add    $0x20,%rsp
  401c35:	83 3d 4c 38 20 00 00 	cmpl   $0x0,0x20384c(%rip)        # 605488 <notify>
  401c3c:	0f 84 d3 00 00 00    	je     401d15 <notify_server+0x17a>
  401c42:	85 db                	test   %ebx,%ebx
  401c44:	0f 84 bc 00 00 00    	je     401d06 <notify_server+0x16b>
  401c4a:	4c 8d 8c 24 00 20 00 	lea    0x2000(%rsp),%r9
  401c51:	00 
  401c52:	41 b8 00 00 00 00    	mov    $0x0,%r8d
  401c58:	48 89 e1             	mov    %rsp,%rcx
  401c5b:	48 8b 15 ee 34 20 00 	mov    0x2034ee(%rip),%rdx        # 605150 <lab>
  401c62:	48 8b 35 ef 34 20 00 	mov    0x2034ef(%rip),%rsi        # 605158 <course>
  401c69:	48 8b 3d d0 34 20 00 	mov    0x2034d0(%rip),%rdi        # 605140 <user_id>
  401c70:	e8 31 11 00 00       	callq  402da6 <driver_post>
  401c75:	85 c0                	test   %eax,%eax
  401c77:	78 67                	js     401ce0 <notify_server+0x145>
  401c79:	bf 88 34 40 00       	mov    $0x403488,%edi
  401c7e:	e8 3d f0 ff ff       	callq  400cc0 <puts@plt>
  401c83:	bf 6b 33 40 00       	mov    $0x40336b,%edi
  401c88:	e8 33 f0 ff ff       	callq  400cc0 <puts@plt>
  401c8d:	48 8b 84 24 08 40 00 	mov    0x4008(%rsp),%rax
  401c94:	00 
  401c95:	64 48 33 04 25 28 00 	xor    %fs:0x28,%rax
  401c9c:	00 00 
  401c9e:	0f 85 f5 00 00 00    	jne    401d99 <notify_server+0x1fe>
  401ca4:	48 81 c4 18 40 00 00 	add    $0x4018,%rsp
  401cab:	5b                   	pop    %rbx
  401cac:	5d                   	pop    %rbp
  401cad:	c3                   	retq   
  401cae:	be 58 34 40 00       	mov    $0x403458,%esi
  401cb3:	bf 01 00 00 00       	mov    $0x1,%edi
  401cb8:	b8 00 00 00 00       	mov    $0x0,%eax
  401cbd:	e8 1e f1 ff ff       	callq  400de0 <__printf_chk@plt>
  401cc2:	bf 01 00 00 00       	mov    $0x1,%edi
  401cc7:	e8 64 f1 ff ff       	callq  400e30 <exit@plt>
  401ccc:	ba ff ff ff ff       	mov    $0xffffffff,%edx
  401cd1:	e9 1e ff ff ff       	jmpq   401bf4 <notify_server+0x59>
  401cd6:	bd 3e 33 40 00       	mov    $0x40333e,%ebp
  401cdb:	e9 21 ff ff ff       	jmpq   401c01 <notify_server+0x66>
  401ce0:	48 8d 94 24 00 20 00 	lea    0x2000(%rsp),%rdx
  401ce7:	00 
  401ce8:	be 5f 33 40 00       	mov    $0x40335f,%esi
  401ced:	bf 01 00 00 00       	mov    $0x1,%edi
  401cf2:	b8 00 00 00 00       	mov    $0x0,%eax
  401cf7:	e8 e4 f0 ff ff       	callq  400de0 <__printf_chk@plt>
  401cfc:	bf 01 00 00 00       	mov    $0x1,%edi
  401d01:	e8 2a f1 ff ff       	callq  400e30 <exit@plt>
  401d06:	bf 75 33 40 00       	mov    $0x403375,%edi
  401d0b:	e8 b0 ef ff ff       	callq  400cc0 <puts@plt>
  401d10:	e9 78 ff ff ff       	jmpq   401c8d <notify_server+0xf2>
  401d15:	48 89 ea             	mov    %rbp,%rdx
  401d18:	be c0 34 40 00       	mov    $0x4034c0,%esi
  401d1d:	bf 01 00 00 00       	mov    $0x1,%edi
  401d22:	b8 00 00 00 00       	mov    $0x0,%eax
  401d27:	e8 b4 f0 ff ff       	callq  400de0 <__printf_chk@plt>
  401d2c:	48 8b 15 0d 34 20 00 	mov    0x20340d(%rip),%rdx        # 605140 <user_id>
  401d33:	be 7c 33 40 00       	mov    $0x40337c,%esi
  401d38:	bf 01 00 00 00       	mov    $0x1,%edi
  401d3d:	b8 00 00 00 00       	mov    $0x0,%eax
  401d42:	e8 99 f0 ff ff       	callq  400de0 <__printf_chk@plt>
  401d47:	48 8b 15 0a 34 20 00 	mov    0x20340a(%rip),%rdx        # 605158 <course>
  401d4e:	be 89 33 40 00       	mov    $0x403389,%esi
  401d53:	bf 01 00 00 00       	mov    $0x1,%edi
  401d58:	b8 00 00 00 00       	mov    $0x0,%eax
  401d5d:	e8 7e f0 ff ff       	callq  400de0 <__printf_chk@plt>
  401d62:	48 8b 15 e7 33 20 00 	mov    0x2033e7(%rip),%rdx        # 605150 <lab>
  401d69:	be 95 33 40 00       	mov    $0x403395,%esi
  401d6e:	bf 01 00 00 00       	mov    $0x1,%edi
  401d73:	b8 00 00 00 00       	mov    $0x0,%eax
  401d78:	e8 63 f0 ff ff       	callq  400de0 <__printf_chk@plt>
  401d7d:	48 89 e2             	mov    %rsp,%rdx
  401d80:	be 9e 33 40 00       	mov    $0x40339e,%esi
  401d85:	bf 01 00 00 00       	mov    $0x1,%edi
  401d8a:	b8 00 00 00 00       	mov    $0x0,%eax
  401d8f:	e8 4c f0 ff ff       	callq  400de0 <__printf_chk@plt>
  401d94:	e9 f4 fe ff ff       	jmpq   401c8d <notify_server+0xf2>
  401d99:	e8 42 ef ff ff       	callq  400ce0 <__stack_chk_fail@plt>

0000000000401d9e <validate>:
  401d9e:	53                   	push   %rbx
  401d9f:	89 fb                	mov    %edi,%ebx
  401da1:	83 3d 60 37 20 00 00 	cmpl   $0x0,0x203760(%rip)        # 605508 <is_checker>
  401da8:	74 6b                	je     401e15 <validate+0x77>
  401daa:	39 3d 4c 37 20 00    	cmp    %edi,0x20374c(%rip)        # 6054fc <vlevel>
  401db0:	75 2f                	jne    401de1 <validate+0x43>
  401db2:	8b 15 40 37 20 00    	mov    0x203740(%rip),%edx        # 6054f8 <check_level>
  401db8:	39 fa                	cmp    %edi,%edx
  401dba:	75 39                	jne    401df5 <validate+0x57>
  401dbc:	0f be 15 65 43 20 00 	movsbl 0x204365(%rip),%edx        # 606128 <target_prefix>
  401dc3:	41 b8 20 55 60 00    	mov    $0x605520,%r8d
  401dc9:	89 f9                	mov    %edi,%ecx
  401dcb:	be c8 33 40 00       	mov    $0x4033c8,%esi
  401dd0:	bf 01 00 00 00       	mov    $0x1,%edi
  401dd5:	b8 00 00 00 00       	mov    $0x0,%eax
  401dda:	e8 01 f0 ff ff       	callq  400de0 <__printf_chk@plt>
  401ddf:	5b                   	pop    %rbx
  401de0:	c3                   	retq   
  401de1:	bf aa 33 40 00       	mov    $0x4033aa,%edi
  401de6:	e8 d5 ee ff ff       	callq  400cc0 <puts@plt>
  401deb:	b8 00 00 00 00       	mov    $0x0,%eax
  401df0:	e8 1f fd ff ff       	callq  401b14 <check_fail>
  401df5:	89 f9                	mov    %edi,%ecx
  401df7:	be e8 34 40 00       	mov    $0x4034e8,%esi
  401dfc:	bf 01 00 00 00       	mov    $0x1,%edi
  401e01:	b8 00 00 00 00       	mov    $0x0,%eax
  401e06:	e8 d5 ef ff ff       	callq  400de0 <__printf_chk@plt>
  401e0b:	b8 00 00 00 00       	mov    $0x0,%eax
  401e10:	e8 ff fc ff ff       	callq  401b14 <check_fail>
  401e15:	39 3d e1 36 20 00    	cmp    %edi,0x2036e1(%rip)        # 6054fc <vlevel>
  401e1b:	74 18                	je     401e35 <validate+0x97>
  401e1d:	bf aa 33 40 00       	mov    $0x4033aa,%edi
  401e22:	e8 99 ee ff ff       	callq  400cc0 <puts@plt>
  401e27:	89 de                	mov    %ebx,%esi
  401e29:	bf 00 00 00 00       	mov    $0x0,%edi
  401e2e:	e8 68 fd ff ff       	callq  401b9b <notify_server>
  401e33:	eb aa                	jmp    401ddf <validate+0x41>
  401e35:	0f be 0d ec 42 20 00 	movsbl 0x2042ec(%rip),%ecx        # 606128 <target_prefix>
  401e3c:	89 fa                	mov    %edi,%edx
  401e3e:	be 10 35 40 00       	mov    $0x403510,%esi
  401e43:	bf 01 00 00 00       	mov    $0x1,%edi
  401e48:	b8 00 00 00 00       	mov    $0x0,%eax
  401e4d:	e8 8e ef ff ff       	callq  400de0 <__printf_chk@plt>
  401e52:	89 de                	mov    %ebx,%esi
  401e54:	bf 01 00 00 00       	mov    $0x1,%edi
  401e59:	e8 3d fd ff ff       	callq  401b9b <notify_server>
  401e5e:	e9 7c ff ff ff       	jmpq   401ddf <validate+0x41>

0000000000401e63 <fail>:
  401e63:	48 83 ec 08          	sub    $0x8,%rsp
  401e67:	83 3d 9a 36 20 00 00 	cmpl   $0x0,0x20369a(%rip)        # 605508 <is_checker>
  401e6e:	75 11                	jne    401e81 <fail+0x1e>
  401e70:	89 fe                	mov    %edi,%esi
  401e72:	bf 00 00 00 00       	mov    $0x0,%edi
  401e77:	e8 1f fd ff ff       	callq  401b9b <notify_server>
  401e7c:	48 83 c4 08          	add    $0x8,%rsp
  401e80:	c3                   	retq   
  401e81:	b8 00 00 00 00       	mov    $0x0,%eax
  401e86:	e8 89 fc ff ff       	callq  401b14 <check_fail>

0000000000401e8b <bushandler>:
  401e8b:	48 83 ec 08          	sub    $0x8,%rsp
  401e8f:	83 3d 72 36 20 00 00 	cmpl   $0x0,0x203672(%rip)        # 605508 <is_checker>
  401e96:	74 14                	je     401eac <bushandler+0x21>
  401e98:	bf dd 33 40 00       	mov    $0x4033dd,%edi
  401e9d:	e8 1e ee ff ff       	callq  400cc0 <puts@plt>
  401ea2:	b8 00 00 00 00       	mov    $0x0,%eax
  401ea7:	e8 68 fc ff ff       	callq  401b14 <check_fail>
  401eac:	bf 48 35 40 00       	mov    $0x403548,%edi
  401eb1:	e8 0a ee ff ff       	callq  400cc0 <puts@plt>
  401eb6:	bf e7 33 40 00       	mov    $0x4033e7,%edi
  401ebb:	e8 00 ee ff ff       	callq  400cc0 <puts@plt>
  401ec0:	be 00 00 00 00       	mov    $0x0,%esi
  401ec5:	bf 00 00 00 00       	mov    $0x0,%edi
  401eca:	e8 cc fc ff ff       	callq  401b9b <notify_server>
  401ecf:	bf 01 00 00 00       	mov    $0x1,%edi
  401ed4:	e8 57 ef ff ff       	callq  400e30 <exit@plt>

0000000000401ed9 <seghandler>:
  401ed9:	48 83 ec 08          	sub    $0x8,%rsp
  401edd:	83 3d 24 36 20 00 00 	cmpl   $0x0,0x203624(%rip)        # 605508 <is_checker>
  401ee4:	74 14                	je     401efa <seghandler+0x21>
  401ee6:	bf fd 33 40 00       	mov    $0x4033fd,%edi
  401eeb:	e8 d0 ed ff ff       	callq  400cc0 <puts@plt>
  401ef0:	b8 00 00 00 00       	mov    $0x0,%eax
  401ef5:	e8 1a fc ff ff       	callq  401b14 <check_fail>
  401efa:	bf 68 35 40 00       	mov    $0x403568,%edi
  401eff:	e8 bc ed ff ff       	callq  400cc0 <puts@plt>
  401f04:	bf e7 33 40 00       	mov    $0x4033e7,%edi
  401f09:	e8 b2 ed ff ff       	callq  400cc0 <puts@plt>
  401f0e:	be 00 00 00 00       	mov    $0x0,%esi
  401f13:	bf 00 00 00 00       	mov    $0x0,%edi
  401f18:	e8 7e fc ff ff       	callq  401b9b <notify_server>
  401f1d:	bf 01 00 00 00       	mov    $0x1,%edi
  401f22:	e8 09 ef ff ff       	callq  400e30 <exit@plt>

0000000000401f27 <illegalhandler>:
  401f27:	48 83 ec 08          	sub    $0x8,%rsp
  401f2b:	83 3d d6 35 20 00 00 	cmpl   $0x0,0x2035d6(%rip)        # 605508 <is_checker>
  401f32:	74 14                	je     401f48 <illegalhandler+0x21>
  401f34:	bf 10 34 40 00       	mov    $0x403410,%edi
  401f39:	e8 82 ed ff ff       	callq  400cc0 <puts@plt>
  401f3e:	b8 00 00 00 00       	mov    $0x0,%eax
  401f43:	e8 cc fb ff ff       	callq  401b14 <check_fail>
  401f48:	bf 90 35 40 00       	mov    $0x403590,%edi
  401f4d:	e8 6e ed ff ff       	callq  400cc0 <puts@plt>
  401f52:	bf e7 33 40 00       	mov    $0x4033e7,%edi
  401f57:	e8 64 ed ff ff       	callq  400cc0 <puts@plt>
  401f5c:	be 00 00 00 00       	mov    $0x0,%esi
  401f61:	bf 00 00 00 00       	mov    $0x0,%edi
  401f66:	e8 30 fc ff ff       	callq  401b9b <notify_server>
  401f6b:	bf 01 00 00 00       	mov    $0x1,%edi
  401f70:	e8 bb ee ff ff       	callq  400e30 <exit@plt>

0000000000401f75 <sigalrmhandler>:
  401f75:	48 83 ec 08          	sub    $0x8,%rsp
  401f79:	83 3d 88 35 20 00 00 	cmpl   $0x0,0x203588(%rip)        # 605508 <is_checker>
  401f80:	74 14                	je     401f96 <sigalrmhandler+0x21>
  401f82:	bf 24 34 40 00       	mov    $0x403424,%edi
  401f87:	e8 34 ed ff ff       	callq  400cc0 <puts@plt>
  401f8c:	b8 00 00 00 00       	mov    $0x0,%eax
  401f91:	e8 7e fb ff ff       	callq  401b14 <check_fail>
  401f96:	ba 05 00 00 00       	mov    $0x5,%edx
  401f9b:	be c0 35 40 00       	mov    $0x4035c0,%esi
  401fa0:	bf 01 00 00 00       	mov    $0x1,%edi
  401fa5:	b8 00 00 00 00       	mov    $0x0,%eax
  401faa:	e8 31 ee ff ff       	callq  400de0 <__printf_chk@plt>
  401faf:	be 00 00 00 00       	mov    $0x0,%esi
  401fb4:	bf 00 00 00 00       	mov    $0x0,%edi
  401fb9:	e8 dd fb ff ff       	callq  401b9b <notify_server>
  401fbe:	bf 01 00 00 00       	mov    $0x1,%edi
  401fc3:	e8 68 ee ff ff       	callq  400e30 <exit@plt>

0000000000401fc8 <launch>:
  401fc8:	55                   	push   %rbp
  401fc9:	48 89 e5             	mov    %rsp,%rbp
  401fcc:	48 83 ec 10          	sub    $0x10,%rsp
  401fd0:	48 89 fa             	mov    %rdi,%rdx
  401fd3:	64 48 8b 04 25 28 00 	mov    %fs:0x28,%rax
  401fda:	00 00 
  401fdc:	48 89 45 f8          	mov    %rax,-0x8(%rbp)
  401fe0:	31 c0                	xor    %eax,%eax
  401fe2:	48 8d 47 1e          	lea    0x1e(%rdi),%rax
  401fe6:	48 83 e0 f0          	and    $0xfffffffffffffff0,%rax
  401fea:	48 29 c4             	sub    %rax,%rsp
  401fed:	48 8d 7c 24 0f       	lea    0xf(%rsp),%rdi
  401ff2:	48 83 e7 f0          	and    $0xfffffffffffffff0,%rdi
  401ff6:	be f4 00 00 00       	mov    $0xf4,%esi
  401ffb:	e8 00 ed ff ff       	callq  400d00 <memset@plt>
  402000:	48 8b 05 99 34 20 00 	mov    0x203499(%rip),%rax        # 6054a0 <stdin@@GLIBC_2.2.5>
  402007:	48 39 05 e2 34 20 00 	cmp    %rax,0x2034e2(%rip)        # 6054f0 <infile>
  40200e:	74 38                	je     402048 <launch+0x80>
  402010:	c7 05 e2 34 20 00 00 	movl   $0x0,0x2034e2(%rip)        # 6054fc <vlevel>
  402017:	00 00 00 
  40201a:	b8 00 00 00 00       	mov    $0x0,%eax
  40201f:	e8 5c fa ff ff       	callq  401a80 <test>
  402024:	83 3d dd 34 20 00 00 	cmpl   $0x0,0x2034dd(%rip)        # 605508 <is_checker>
  40202b:	75 31                	jne    40205e <launch+0x96>
  40202d:	bf 44 34 40 00       	mov    $0x403444,%edi
  402032:	e8 89 ec ff ff       	callq  400cc0 <puts@plt>
  402037:	48 8b 45 f8          	mov    -0x8(%rbp),%rax
  40203b:	64 48 33 04 25 28 00 	xor    %fs:0x28,%rax
  402042:	00 00 
  402044:	75 2c                	jne    402072 <launch+0xaa>
  402046:	c9                   	leaveq 
  402047:	c3                   	retq   
  402048:	be 2c 34 40 00       	mov    $0x40342c,%esi
  40204d:	bf 01 00 00 00       	mov    $0x1,%edi
  402052:	b8 00 00 00 00       	mov    $0x0,%eax
  402057:	e8 84 ed ff ff       	callq  400de0 <__printf_chk@plt>
  40205c:	eb b2                	jmp    402010 <launch+0x48>
  40205e:	bf 39 34 40 00       	mov    $0x403439,%edi
  402063:	e8 58 ec ff ff       	callq  400cc0 <puts@plt>
  402068:	b8 00 00 00 00       	mov    $0x0,%eax
  40206d:	e8 a2 fa ff ff       	callq  401b14 <check_fail>
  402072:	e8 69 ec ff ff       	callq  400ce0 <__stack_chk_fail@plt>

0000000000402077 <stable_launch>:
  402077:	53                   	push   %rbx
  402078:	48 89 3d 69 34 20 00 	mov    %rdi,0x203469(%rip)        # 6054e8 <global_offset>
  40207f:	41 b9 00 00 00 00    	mov    $0x0,%r9d
  402085:	41 b8 00 00 00 00    	mov    $0x0,%r8d
  40208b:	b9 32 01 00 00       	mov    $0x132,%ecx
  402090:	ba 07 00 00 00       	mov    $0x7,%edx
  402095:	be 00 00 10 00       	mov    $0x100000,%esi
  40209a:	bf 00 60 58 55       	mov    $0x55586000,%edi
  40209f:	e8 4c ec ff ff       	callq  400cf0 <mmap@plt>
  4020a4:	48 89 c3             	mov    %rax,%rbx
  4020a7:	48 3d 00 60 58 55    	cmp    $0x55586000,%rax
  4020ad:	75 43                	jne    4020f2 <stable_launch+0x7b>
  4020af:	48 8d 90 f8 ff 0f 00 	lea    0xffff8(%rax),%rdx
  4020b6:	48 89 15 73 40 20 00 	mov    %rdx,0x204073(%rip)        # 606130 <stack_top>
  4020bd:	48 89 e0             	mov    %rsp,%rax
  4020c0:	48 89 d4             	mov    %rdx,%rsp
  4020c3:	48 89 c2             	mov    %rax,%rdx
  4020c6:	48 89 15 13 34 20 00 	mov    %rdx,0x203413(%rip)        # 6054e0 <global_save_stack>
  4020cd:	48 8b 3d 14 34 20 00 	mov    0x203414(%rip),%rdi        # 6054e8 <global_offset>
  4020d4:	e8 ef fe ff ff       	callq  401fc8 <launch>
  4020d9:	48 8b 05 00 34 20 00 	mov    0x203400(%rip),%rax        # 6054e0 <global_save_stack>
  4020e0:	48 89 c4             	mov    %rax,%rsp
  4020e3:	be 00 00 10 00       	mov    $0x100000,%esi
  4020e8:	48 89 df             	mov    %rbx,%rdi
  4020eb:	e8 e0 ec ff ff       	callq  400dd0 <munmap@plt>
  4020f0:	5b                   	pop    %rbx
  4020f1:	c3                   	retq   
  4020f2:	be 00 00 10 00       	mov    $0x100000,%esi
  4020f7:	48 89 c7             	mov    %rax,%rdi
  4020fa:	e8 d1 ec ff ff       	callq  400dd0 <munmap@plt>
  4020ff:	b9 00 60 58 55       	mov    $0x55586000,%ecx
  402104:	ba f8 35 40 00       	mov    $0x4035f8,%edx
  402109:	be 01 00 00 00       	mov    $0x1,%esi
  40210e:	48 8b 3d ab 33 20 00 	mov    0x2033ab(%rip),%rdi        # 6054c0 <stderr@@GLIBC_2.2.5>
  402115:	b8 00 00 00 00       	mov    $0x0,%eax
  40211a:	e8 31 ed ff ff       	callq  400e50 <__fprintf_chk@plt>
  40211f:	bf 01 00 00 00       	mov    $0x1,%edi
  402124:	e8 07 ed ff ff       	callq  400e30 <exit@plt>

0000000000402129 <rio_readinitb>:
  402129:	89 37                	mov    %esi,(%rdi)
  40212b:	c7 47 04 00 00 00 00 	movl   $0x0,0x4(%rdi)
  402132:	48 8d 47 10          	lea    0x10(%rdi),%rax
  402136:	48 89 47 08          	mov    %rax,0x8(%rdi)
  40213a:	c3                   	retq   

000000000040213b <sigalrm_handler>:
  40213b:	48 83 ec 08          	sub    $0x8,%rsp
  40213f:	b9 00 00 00 00       	mov    $0x0,%ecx
  402144:	ba 30 36 40 00       	mov    $0x403630,%edx
  402149:	be 01 00 00 00       	mov    $0x1,%esi
  40214e:	48 8b 3d 6b 33 20 00 	mov    0x20336b(%rip),%rdi        # 6054c0 <stderr@@GLIBC_2.2.5>
  402155:	b8 00 00 00 00       	mov    $0x0,%eax
  40215a:	e8 f1 ec ff ff       	callq  400e50 <__fprintf_chk@plt>
  40215f:	bf 01 00 00 00       	mov    $0x1,%edi
  402164:	e8 c7 ec ff ff       	callq  400e30 <exit@plt>

0000000000402169 <rio_writen>:
  402169:	41 55                	push   %r13
  40216b:	41 54                	push   %r12
  40216d:	55                   	push   %rbp
  40216e:	53                   	push   %rbx
  40216f:	48 83 ec 08          	sub    $0x8,%rsp
  402173:	41 89 fc             	mov    %edi,%r12d
  402176:	48 89 f5             	mov    %rsi,%rbp
  402179:	49 89 d5             	mov    %rdx,%r13
  40217c:	48 89 d3             	mov    %rdx,%rbx
  40217f:	eb 06                	jmp    402187 <rio_writen+0x1e>
  402181:	48 29 c3             	sub    %rax,%rbx
  402184:	48 01 c5             	add    %rax,%rbp
  402187:	48 85 db             	test   %rbx,%rbx
  40218a:	74 24                	je     4021b0 <rio_writen+0x47>
  40218c:	48 89 da             	mov    %rbx,%rdx
  40218f:	48 89 ee             	mov    %rbp,%rsi
  402192:	44 89 e7             	mov    %r12d,%edi
  402195:	e8 36 eb ff ff       	callq  400cd0 <write@plt>
  40219a:	48 85 c0             	test   %rax,%rax
  40219d:	7f e2                	jg     402181 <rio_writen+0x18>
  40219f:	e8 dc ea ff ff       	callq  400c80 <__errno_location@plt>
  4021a4:	83 38 04             	cmpl   $0x4,(%rax)
  4021a7:	75 15                	jne    4021be <rio_writen+0x55>
  4021a9:	b8 00 00 00 00       	mov    $0x0,%eax
  4021ae:	eb d1                	jmp    402181 <rio_writen+0x18>
  4021b0:	4c 89 e8             	mov    %r13,%rax
  4021b3:	48 83 c4 08          	add    $0x8,%rsp
  4021b7:	5b                   	pop    %rbx
  4021b8:	5d                   	pop    %rbp
  4021b9:	41 5c                	pop    %r12
  4021bb:	41 5d                	pop    %r13
  4021bd:	c3                   	retq   
  4021be:	48 c7 c0 ff ff ff ff 	mov    $0xffffffffffffffff,%rax
  4021c5:	eb ec                	jmp    4021b3 <rio_writen+0x4a>

00000000004021c7 <rio_read>:
  4021c7:	41 55                	push   %r13
  4021c9:	41 54                	push   %r12
  4021cb:	55                   	push   %rbp
  4021cc:	53                   	push   %rbx
  4021cd:	48 83 ec 08          	sub    $0x8,%rsp
  4021d1:	48 89 fb             	mov    %rdi,%rbx
  4021d4:	49 89 f5             	mov    %rsi,%r13
  4021d7:	49 89 d4             	mov    %rdx,%r12
  4021da:	eb 0a                	jmp    4021e6 <rio_read+0x1f>
  4021dc:	e8 9f ea ff ff       	callq  400c80 <__errno_location@plt>
  4021e1:	83 38 04             	cmpl   $0x4,(%rax)
  4021e4:	75 5c                	jne    402242 <rio_read+0x7b>
  4021e6:	8b 6b 04             	mov    0x4(%rbx),%ebp
  4021e9:	85 ed                	test   %ebp,%ebp
  4021eb:	7f 24                	jg     402211 <rio_read+0x4a>
  4021ed:	48 8d 6b 10          	lea    0x10(%rbx),%rbp
  4021f1:	8b 3b                	mov    (%rbx),%edi
  4021f3:	ba 00 20 00 00       	mov    $0x2000,%edx
  4021f8:	48 89 ee             	mov    %rbp,%rsi
  4021fb:	e8 30 eb ff ff       	callq  400d30 <read@plt>
  402200:	89 43 04             	mov    %eax,0x4(%rbx)
  402203:	85 c0                	test   %eax,%eax
  402205:	78 d5                	js     4021dc <rio_read+0x15>
  402207:	85 c0                	test   %eax,%eax
  402209:	74 40                	je     40224b <rio_read+0x84>
  40220b:	48 89 6b 08          	mov    %rbp,0x8(%rbx)
  40220f:	eb d5                	jmp    4021e6 <rio_read+0x1f>
  402211:	89 e8                	mov    %ebp,%eax
  402213:	4c 39 e0             	cmp    %r12,%rax
  402216:	72 03                	jb     40221b <rio_read+0x54>
  402218:	44 89 e5             	mov    %r12d,%ebp
  40221b:	4c 63 e5             	movslq %ebp,%r12
  40221e:	48 8b 73 08          	mov    0x8(%rbx),%rsi
  402222:	4c 89 e2             	mov    %r12,%rdx
  402225:	4c 89 ef             	mov    %r13,%rdi
  402228:	e8 53 eb ff ff       	callq  400d80 <memcpy@plt>
  40222d:	4c 01 63 08          	add    %r12,0x8(%rbx)
  402231:	29 6b 04             	sub    %ebp,0x4(%rbx)
  402234:	4c 89 e0             	mov    %r12,%rax
  402237:	48 83 c4 08          	add    $0x8,%rsp
  40223b:	5b                   	pop    %rbx
  40223c:	5d                   	pop    %rbp
  40223d:	41 5c                	pop    %r12
  40223f:	41 5d                	pop    %r13
  402241:	c3                   	retq   
  402242:	48 c7 c0 ff ff ff ff 	mov    $0xffffffffffffffff,%rax
  402249:	eb ec                	jmp    402237 <rio_read+0x70>
  40224b:	b8 00 00 00 00       	mov    $0x0,%eax
  402250:	eb e5                	jmp    402237 <rio_read+0x70>

0000000000402252 <rio_readlineb>:
  402252:	41 55                	push   %r13
  402254:	41 54                	push   %r12
  402256:	55                   	push   %rbp
  402257:	53                   	push   %rbx
  402258:	48 83 ec 18          	sub    $0x18,%rsp
  40225c:	49 89 fd             	mov    %rdi,%r13
  40225f:	48 89 f5             	mov    %rsi,%rbp
  402262:	49 89 d4             	mov    %rdx,%r12
  402265:	64 48 8b 04 25 28 00 	mov    %fs:0x28,%rax
  40226c:	00 00 
  40226e:	48 89 44 24 08       	mov    %rax,0x8(%rsp)
  402273:	31 c0                	xor    %eax,%eax
  402275:	bb 01 00 00 00       	mov    $0x1,%ebx
  40227a:	4c 39 e3             	cmp    %r12,%rbx
  40227d:	73 47                	jae    4022c6 <rio_readlineb+0x74>
  40227f:	ba 01 00 00 00       	mov    $0x1,%edx
  402284:	48 8d 74 24 07       	lea    0x7(%rsp),%rsi
  402289:	4c 89 ef             	mov    %r13,%rdi
  40228c:	e8 36 ff ff ff       	callq  4021c7 <rio_read>
  402291:	83 f8 01             	cmp    $0x1,%eax
  402294:	75 1c                	jne    4022b2 <rio_readlineb+0x60>
  402296:	48 8d 45 01          	lea    0x1(%rbp),%rax
  40229a:	0f b6 54 24 07       	movzbl 0x7(%rsp),%edx
  40229f:	88 55 00             	mov    %dl,0x0(%rbp)
  4022a2:	80 7c 24 07 0a       	cmpb   $0xa,0x7(%rsp)
  4022a7:	74 1a                	je     4022c3 <rio_readlineb+0x71>
  4022a9:	48 83 c3 01          	add    $0x1,%rbx
  4022ad:	48 89 c5             	mov    %rax,%rbp
  4022b0:	eb c8                	jmp    40227a <rio_readlineb+0x28>
  4022b2:	85 c0                	test   %eax,%eax
  4022b4:	75 32                	jne    4022e8 <rio_readlineb+0x96>
  4022b6:	48 83 fb 01          	cmp    $0x1,%rbx
  4022ba:	75 0a                	jne    4022c6 <rio_readlineb+0x74>
  4022bc:	b8 00 00 00 00       	mov    $0x0,%eax
  4022c1:	eb 0a                	jmp    4022cd <rio_readlineb+0x7b>
  4022c3:	48 89 c5             	mov    %rax,%rbp
  4022c6:	c6 45 00 00          	movb   $0x0,0x0(%rbp)
  4022ca:	48 89 d8             	mov    %rbx,%rax
  4022cd:	48 8b 4c 24 08       	mov    0x8(%rsp),%rcx
  4022d2:	64 48 33 0c 25 28 00 	xor    %fs:0x28,%rcx
  4022d9:	00 00 
  4022db:	75 14                	jne    4022f1 <rio_readlineb+0x9f>
  4022dd:	48 83 c4 18          	add    $0x18,%rsp
  4022e1:	5b                   	pop    %rbx
  4022e2:	5d                   	pop    %rbp
  4022e3:	41 5c                	pop    %r12
  4022e5:	41 5d                	pop    %r13
  4022e7:	c3                   	retq   
  4022e8:	48 c7 c0 ff ff ff ff 	mov    $0xffffffffffffffff,%rax
  4022ef:	eb dc                	jmp    4022cd <rio_readlineb+0x7b>
  4022f1:	e8 ea e9 ff ff       	callq  400ce0 <__stack_chk_fail@plt>

00000000004022f6 <urlencode>:
  4022f6:	41 54                	push   %r12
  4022f8:	55                   	push   %rbp
  4022f9:	53                   	push   %rbx
  4022fa:	48 83 ec 10          	sub    $0x10,%rsp
  4022fe:	48 89 fb             	mov    %rdi,%rbx
  402301:	48 89 f5             	mov    %rsi,%rbp
  402304:	64 48 8b 04 25 28 00 	mov    %fs:0x28,%rax
  40230b:	00 00 
  40230d:	48 89 44 24 08       	mov    %rax,0x8(%rsp)
  402312:	31 c0                	xor    %eax,%eax
  402314:	48 c7 c1 ff ff ff ff 	mov    $0xffffffffffffffff,%rcx
  40231b:	f2 ae                	repnz scas %es:(%rdi),%al
  40231d:	48 89 ce             	mov    %rcx,%rsi
  402320:	48 f7 d6             	not    %rsi
  402323:	8d 46 ff             	lea    -0x1(%rsi),%eax
  402326:	eb 0f                	jmp    402337 <urlencode+0x41>
  402328:	44 88 45 00          	mov    %r8b,0x0(%rbp)
  40232c:	48 8d 6d 01          	lea    0x1(%rbp),%rbp
  402330:	48 83 c3 01          	add    $0x1,%rbx
  402334:	44 89 e0             	mov    %r12d,%eax
  402337:	44 8d 60 ff          	lea    -0x1(%rax),%r12d
  40233b:	85 c0                	test   %eax,%eax
  40233d:	0f 84 a6 00 00 00    	je     4023e9 <urlencode+0xf3>
  402343:	44 0f b6 03          	movzbl (%rbx),%r8d
  402347:	41 80 f8 2a          	cmp    $0x2a,%r8b
  40234b:	0f 94 c2             	sete   %dl
  40234e:	41 80 f8 2d          	cmp    $0x2d,%r8b
  402352:	0f 94 c0             	sete   %al
  402355:	08 c2                	or     %al,%dl
  402357:	75 cf                	jne    402328 <urlencode+0x32>
  402359:	41 80 f8 2e          	cmp    $0x2e,%r8b
  40235d:	74 c9                	je     402328 <urlencode+0x32>
  40235f:	41 80 f8 5f          	cmp    $0x5f,%r8b
  402363:	74 c3                	je     402328 <urlencode+0x32>
  402365:	41 8d 40 d0          	lea    -0x30(%r8),%eax
  402369:	3c 09                	cmp    $0x9,%al
  40236b:	76 bb                	jbe    402328 <urlencode+0x32>
  40236d:	41 8d 40 bf          	lea    -0x41(%r8),%eax
  402371:	3c 19                	cmp    $0x19,%al
  402373:	76 b3                	jbe    402328 <urlencode+0x32>
  402375:	41 8d 40 9f          	lea    -0x61(%r8),%eax
  402379:	3c 19                	cmp    $0x19,%al
  40237b:	76 ab                	jbe    402328 <urlencode+0x32>
  40237d:	41 80 f8 20          	cmp    $0x20,%r8b
  402381:	74 54                	je     4023d7 <urlencode+0xe1>
  402383:	41 8d 40 e0          	lea    -0x20(%r8),%eax
  402387:	3c 5f                	cmp    $0x5f,%al
  402389:	0f 96 c2             	setbe  %dl
  40238c:	41 80 f8 09          	cmp    $0x9,%r8b
  402390:	0f 94 c0             	sete   %al
  402393:	08 c2                	or     %al,%dl
  402395:	74 4d                	je     4023e4 <urlencode+0xee>
  402397:	45 0f b6 c0          	movzbl %r8b,%r8d
  40239b:	b9 c8 36 40 00       	mov    $0x4036c8,%ecx
  4023a0:	ba 08 00 00 00       	mov    $0x8,%edx
  4023a5:	be 01 00 00 00       	mov    $0x1,%esi
  4023aa:	48 89 e7             	mov    %rsp,%rdi
  4023ad:	b8 00 00 00 00       	mov    $0x0,%eax
  4023b2:	e8 a9 ea ff ff       	callq  400e60 <__sprintf_chk@plt>
  4023b7:	0f b6 04 24          	movzbl (%rsp),%eax
  4023bb:	88 45 00             	mov    %al,0x0(%rbp)
  4023be:	0f b6 44 24 01       	movzbl 0x1(%rsp),%eax
  4023c3:	88 45 01             	mov    %al,0x1(%rbp)
  4023c6:	0f b6 44 24 02       	movzbl 0x2(%rsp),%eax
  4023cb:	88 45 02             	mov    %al,0x2(%rbp)
  4023ce:	48 8d 6d 03          	lea    0x3(%rbp),%rbp
  4023d2:	e9 59 ff ff ff       	jmpq   402330 <urlencode+0x3a>
  4023d7:	c6 45 00 2b          	movb   $0x2b,0x0(%rbp)
  4023db:	48 8d 6d 01          	lea    0x1(%rbp),%rbp
  4023df:	e9 4c ff ff ff       	jmpq   402330 <urlencode+0x3a>
  4023e4:	b8 ff ff ff ff       	mov    $0xffffffff,%eax
  4023e9:	48 8b 74 24 08       	mov    0x8(%rsp),%rsi
  4023ee:	64 48 33 34 25 28 00 	xor    %fs:0x28,%rsi
  4023f5:	00 00 
  4023f7:	75 09                	jne    402402 <urlencode+0x10c>
  4023f9:	48 83 c4 10          	add    $0x10,%rsp
  4023fd:	5b                   	pop    %rbx
  4023fe:	5d                   	pop    %rbp
  4023ff:	41 5c                	pop    %r12
  402401:	c3                   	retq   
  402402:	e8 d9 e8 ff ff       	callq  400ce0 <__stack_chk_fail@plt>

0000000000402407 <submitr>:
  402407:	41 57                	push   %r15
  402409:	41 56                	push   %r14
  40240b:	41 55                	push   %r13
  40240d:	41 54                	push   %r12
  40240f:	55                   	push   %rbp
  402410:	53                   	push   %rbx
  402411:	48 81 ec 58 a0 00 00 	sub    $0xa058,%rsp
  402418:	49 89 fc             	mov    %rdi,%r12
  40241b:	89 74 24 04          	mov    %esi,0x4(%rsp)
  40241f:	49 89 d7             	mov    %rdx,%r15
  402422:	49 89 ce             	mov    %rcx,%r14
  402425:	4c 89 44 24 08       	mov    %r8,0x8(%rsp)
  40242a:	4d 89 cd             	mov    %r9,%r13
  40242d:	48 8b ac 24 90 a0 00 	mov    0xa090(%rsp),%rbp
  402434:	00 
  402435:	64 48 8b 04 25 28 00 	mov    %fs:0x28,%rax
  40243c:	00 00 
  40243e:	48 89 84 24 48 a0 00 	mov    %rax,0xa048(%rsp)
  402445:	00 
  402446:	31 c0                	xor    %eax,%eax
  402448:	c7 44 24 1c 00 00 00 	movl   $0x0,0x1c(%rsp)
  40244f:	00 
  402450:	ba 00 00 00 00       	mov    $0x0,%edx
  402455:	be 01 00 00 00       	mov    $0x1,%esi
  40245a:	bf 02 00 00 00       	mov    $0x2,%edi
  40245f:	e8 0c ea ff ff       	callq  400e70 <socket@plt>
  402464:	85 c0                	test   %eax,%eax
  402466:	0f 88 9b 02 00 00    	js     402707 <submitr+0x300>
  40246c:	89 c3                	mov    %eax,%ebx
  40246e:	4c 89 e7             	mov    %r12,%rdi
  402471:	e8 da e8 ff ff       	callq  400d50 <gethostbyname@plt>
  402476:	48 85 c0             	test   %rax,%rax
  402479:	0f 84 d4 02 00 00    	je     402753 <submitr+0x34c>
  40247f:	48 c7 44 24 22 00 00 	movq   $0x0,0x22(%rsp)
  402486:	00 00 
  402488:	c7 44 24 2a 00 00 00 	movl   $0x0,0x2a(%rsp)
  40248f:	00 
  402490:	66 c7 44 24 2e 00 00 	movw   $0x0,0x2e(%rsp)
  402497:	66 c7 44 24 20 02 00 	movw   $0x2,0x20(%rsp)
  40249e:	48 63 50 14          	movslq 0x14(%rax),%rdx
  4024a2:	48 8b 40 18          	mov    0x18(%rax),%rax
  4024a6:	48 8b 30             	mov    (%rax),%rsi
  4024a9:	48 8d 7c 24 24       	lea    0x24(%rsp),%rdi
  4024ae:	b9 0c 00 00 00       	mov    $0xc,%ecx
  4024b3:	e8 a8 e8 ff ff       	callq  400d60 <__memmove_chk@plt>
  4024b8:	0f b7 44 24 04       	movzwl 0x4(%rsp),%eax
  4024bd:	66 c1 c8 08          	ror    $0x8,%ax
  4024c1:	66 89 44 24 22       	mov    %ax,0x22(%rsp)
  4024c6:	ba 10 00 00 00       	mov    $0x10,%edx
  4024cb:	48 8d 74 24 20       	lea    0x20(%rsp),%rsi
  4024d0:	89 df                	mov    %ebx,%edi
  4024d2:	e8 69 e9 ff ff       	callq  400e40 <connect@plt>
  4024d7:	85 c0                	test   %eax,%eax
  4024d9:	0f 88 dc 02 00 00    	js     4027bb <submitr+0x3b4>
  4024df:	48 c7 c6 ff ff ff ff 	mov    $0xffffffffffffffff,%rsi
  4024e6:	b8 00 00 00 00       	mov    $0x0,%eax
  4024eb:	48 89 f1             	mov    %rsi,%rcx
  4024ee:	4c 89 ef             	mov    %r13,%rdi
  4024f1:	f2 ae                	repnz scas %es:(%rdi),%al
  4024f3:	48 89 ca             	mov    %rcx,%rdx
  4024f6:	48 f7 d2             	not    %rdx
  4024f9:	48 89 f1             	mov    %rsi,%rcx
  4024fc:	4c 89 ff             	mov    %r15,%rdi
  4024ff:	f2 ae                	repnz scas %es:(%rdi),%al
  402501:	48 f7 d1             	not    %rcx
  402504:	49 89 c8             	mov    %rcx,%r8
  402507:	48 89 f1             	mov    %rsi,%rcx
  40250a:	4c 89 f7             	mov    %r14,%rdi
  40250d:	f2 ae                	repnz scas %es:(%rdi),%al
  40250f:	48 f7 d1             	not    %rcx
  402512:	4d 8d 44 08 fe       	lea    -0x2(%r8,%rcx,1),%r8
  402517:	48 89 f1             	mov    %rsi,%rcx
  40251a:	48 8b 7c 24 08       	mov    0x8(%rsp),%rdi
  40251f:	f2 ae                	repnz scas %es:(%rdi),%al
  402521:	48 89 c8             	mov    %rcx,%rax
  402524:	48 f7 d0             	not    %rax
  402527:	49 8d 4c 00 ff       	lea    -0x1(%r8,%rax,1),%rcx
  40252c:	48 8d 44 52 fd       	lea    -0x3(%rdx,%rdx,2),%rax
  402531:	48 8d 84 01 80 00 00 	lea    0x80(%rcx,%rax,1),%rax
  402538:	00 
  402539:	48 3d 00 20 00 00    	cmp    $0x2000,%rax
  40253f:	0f 87 d0 02 00 00    	ja     402815 <submitr+0x40e>
  402545:	48 8d b4 24 40 40 00 	lea    0x4040(%rsp),%rsi
  40254c:	00 
  40254d:	b9 00 04 00 00       	mov    $0x400,%ecx
  402552:	b8 00 00 00 00       	mov    $0x0,%eax
  402557:	48 89 f7             	mov    %rsi,%rdi
  40255a:	f3 48 ab             	rep stos %rax,%es:(%rdi)
  40255d:	4c 89 ef             	mov    %r13,%rdi
  402560:	e8 91 fd ff ff       	callq  4022f6 <urlencode>
  402565:	85 c0                	test   %eax,%eax
  402567:	0f 88 1b 03 00 00    	js     402888 <submitr+0x481>
  40256d:	4c 8d ac 24 40 20 00 	lea    0x2040(%rsp),%r13
  402574:	00 
  402575:	41 54                	push   %r12
  402577:	48 8d 84 24 48 40 00 	lea    0x4048(%rsp),%rax
  40257e:	00 
  40257f:	50                   	push   %rax
  402580:	4d 89 f9             	mov    %r15,%r9
  402583:	4d 89 f0             	mov    %r14,%r8
  402586:	b9 58 36 40 00       	mov    $0x403658,%ecx
  40258b:	ba 00 20 00 00       	mov    $0x2000,%edx
  402590:	be 01 00 00 00       	mov    $0x1,%esi
  402595:	4c 89 ef             	mov    %r13,%rdi
  402598:	b8 00 00 00 00       	mov    $0x0,%eax
  40259d:	e8 be e8 ff ff       	callq  400e60 <__sprintf_chk@plt>
  4025a2:	48 c7 c1 ff ff ff ff 	mov    $0xffffffffffffffff,%rcx
  4025a9:	b8 00 00 00 00       	mov    $0x0,%eax
  4025ae:	4c 89 ef             	mov    %r13,%rdi
  4025b1:	f2 ae                	repnz scas %es:(%rdi),%al
  4025b3:	48 89 ca             	mov    %rcx,%rdx
  4025b6:	48 f7 d2             	not    %rdx
  4025b9:	48 8d 52 ff          	lea    -0x1(%rdx),%rdx
  4025bd:	4c 89 ee             	mov    %r13,%rsi
  4025c0:	89 df                	mov    %ebx,%edi
  4025c2:	e8 a2 fb ff ff       	callq  402169 <rio_writen>
  4025c7:	48 83 c4 10          	add    $0x10,%rsp
  4025cb:	48 85 c0             	test   %rax,%rax
  4025ce:	0f 88 3f 03 00 00    	js     402913 <submitr+0x50c>
  4025d4:	89 de                	mov    %ebx,%esi
  4025d6:	48 8d 7c 24 30       	lea    0x30(%rsp),%rdi
  4025db:	e8 49 fb ff ff       	callq  402129 <rio_readinitb>
  4025e0:	ba 00 20 00 00       	mov    $0x2000,%edx
  4025e5:	48 8d b4 24 40 20 00 	lea    0x2040(%rsp),%rsi
  4025ec:	00 
  4025ed:	48 8d 7c 24 30       	lea    0x30(%rsp),%rdi
  4025f2:	e8 5b fc ff ff       	callq  402252 <rio_readlineb>
  4025f7:	48 85 c0             	test   %rax,%rax
  4025fa:	0f 8e 82 03 00 00    	jle    402982 <submitr+0x57b>
  402600:	4c 8d 84 24 40 80 00 	lea    0x8040(%rsp),%r8
  402607:	00 
  402608:	48 8d 4c 24 1c       	lea    0x1c(%rsp),%rcx
  40260d:	48 8d 94 24 40 60 00 	lea    0x6040(%rsp),%rdx
  402614:	00 
  402615:	be cf 36 40 00       	mov    $0x4036cf,%esi
  40261a:	48 8d bc 24 40 20 00 	lea    0x2040(%rsp),%rdi
  402621:	00 
  402622:	b8 00 00 00 00       	mov    $0x0,%eax
  402627:	e8 94 e7 ff ff       	callq  400dc0 <__isoc99_sscanf@plt>
  40262c:	48 8d b4 24 40 20 00 	lea    0x2040(%rsp),%rsi
  402633:	00 
  402634:	bf e6 36 40 00       	mov    $0x4036e6,%edi
  402639:	b9 03 00 00 00       	mov    $0x3,%ecx
  40263e:	f3 a6                	repz cmpsb %es:(%rdi),%ds:(%rsi)
  402640:	0f 97 c0             	seta   %al
  402643:	1c 00                	sbb    $0x0,%al
  402645:	84 c0                	test   %al,%al
  402647:	0f 84 b3 03 00 00    	je     402a00 <submitr+0x5f9>
  40264d:	ba 00 20 00 00       	mov    $0x2000,%edx
  402652:	48 8d b4 24 40 20 00 	lea    0x2040(%rsp),%rsi
  402659:	00 
  40265a:	48 8d 7c 24 30       	lea    0x30(%rsp),%rdi
  40265f:	e8 ee fb ff ff       	callq  402252 <rio_readlineb>
  402664:	48 85 c0             	test   %rax,%rax
  402667:	7f c3                	jg     40262c <submitr+0x225>
  402669:	48 b8 45 72 72 6f 72 	movabs $0x43203a726f727245,%rax
  402670:	3a 20 43 
  402673:	48 ba 6c 69 65 6e 74 	movabs $0x6e7520746e65696c,%rdx
  40267a:	20 75 6e 
  40267d:	48 89 45 00          	mov    %rax,0x0(%rbp)
  402681:	48 89 55 08          	mov    %rdx,0x8(%rbp)
  402685:	48 b8 61 62 6c 65 20 	movabs $0x206f7420656c6261,%rax
  40268c:	74 6f 20 
  40268f:	48 ba 72 65 61 64 20 	movabs $0x6165682064616572,%rdx
  402696:	68 65 61 
  402699:	48 89 45 10          	mov    %rax,0x10(%rbp)
  40269d:	48 89 55 18          	mov    %rdx,0x18(%rbp)
  4026a1:	48 b8 64 65 72 73 20 	movabs $0x6f72662073726564,%rax
  4026a8:	66 72 6f 
  4026ab:	48 ba 6d 20 74 68 65 	movabs $0x657220656874206d,%rdx
  4026b2:	20 72 65 
  4026b5:	48 89 45 20          	mov    %rax,0x20(%rbp)
  4026b9:	48 89 55 28          	mov    %rdx,0x28(%rbp)
  4026bd:	48 b8 73 75 6c 74 20 	movabs $0x72657320746c7573,%rax
  4026c4:	73 65 72 
  4026c7:	48 89 45 30          	mov    %rax,0x30(%rbp)
  4026cb:	c7 45 38 76 65 72 00 	movl   $0x726576,0x38(%rbp)
  4026d2:	89 df                	mov    %ebx,%edi
  4026d4:	e8 47 e6 ff ff       	callq  400d20 <close@plt>
  4026d9:	b8 ff ff ff ff       	mov    $0xffffffff,%eax
  4026de:	48 8b 9c 24 48 a0 00 	mov    0xa048(%rsp),%rbx
  4026e5:	00 
  4026e6:	64 48 33 1c 25 28 00 	xor    %fs:0x28,%rbx
  4026ed:	00 00 
  4026ef:	0f 85 76 04 00 00    	jne    402b6b <submitr+0x764>
  4026f5:	48 81 c4 58 a0 00 00 	add    $0xa058,%rsp
  4026fc:	5b                   	pop    %rbx
  4026fd:	5d                   	pop    %rbp
  4026fe:	41 5c                	pop    %r12
  402700:	41 5d                	pop    %r13
  402702:	41 5e                	pop    %r14
  402704:	41 5f                	pop    %r15
  402706:	c3                   	retq   
  402707:	48 b8 45 72 72 6f 72 	movabs $0x43203a726f727245,%rax
  40270e:	3a 20 43 
  402711:	48 ba 6c 69 65 6e 74 	movabs $0x6e7520746e65696c,%rdx
  402718:	20 75 6e 
  40271b:	48 89 45 00          	mov    %rax,0x0(%rbp)
  40271f:	48 89 55 08          	mov    %rdx,0x8(%rbp)
  402723:	48 b8 61 62 6c 65 20 	movabs $0x206f7420656c6261,%rax
  40272a:	74 6f 20 
  40272d:	48 ba 63 72 65 61 74 	movabs $0x7320657461657263,%rdx
  402734:	65 20 73 
  402737:	48 89 45 10          	mov    %rax,0x10(%rbp)
  40273b:	48 89 55 18          	mov    %rdx,0x18(%rbp)
  40273f:	c7 45 20 6f 63 6b 65 	movl   $0x656b636f,0x20(%rbp)
  402746:	66 c7 45 24 74 00    	movw   $0x74,0x24(%rbp)
  40274c:	b8 ff ff ff ff       	mov    $0xffffffff,%eax
  402751:	eb 8b                	jmp    4026de <submitr+0x2d7>
  402753:	48 b8 45 72 72 6f 72 	movabs $0x44203a726f727245,%rax
  40275a:	3a 20 44 
  40275d:	48 ba 4e 53 20 69 73 	movabs $0x6e7520736920534e,%rdx
  402764:	20 75 6e 
  402767:	48 89 45 00          	mov    %rax,0x0(%rbp)
  40276b:	48 89 55 08          	mov    %rdx,0x8(%rbp)
  40276f:	48 b8 61 62 6c 65 20 	movabs $0x206f7420656c6261,%rax
  402776:	74 6f 20 
  402779:	48 ba 72 65 73 6f 6c 	movabs $0x2065766c6f736572,%rdx
  402780:	76 65 20 
  402783:	48 89 45 10          	mov    %rax,0x10(%rbp)
  402787:	48 89 55 18          	mov    %rdx,0x18(%rbp)
  40278b:	48 b8 73 65 72 76 65 	movabs $0x6120726576726573,%rax
  402792:	72 20 61 
  402795:	48 89 45 20          	mov    %rax,0x20(%rbp)
  402799:	c7 45 28 64 64 72 65 	movl   $0x65726464,0x28(%rbp)
  4027a0:	66 c7 45 2c 73 73    	movw   $0x7373,0x2c(%rbp)
  4027a6:	c6 45 2e 00          	movb   $0x0,0x2e(%rbp)
  4027aa:	89 df                	mov    %ebx,%edi
  4027ac:	e8 6f e5 ff ff       	callq  400d20 <close@plt>
  4027b1:	b8 ff ff ff ff       	mov    $0xffffffff,%eax
  4027b6:	e9 23 ff ff ff       	jmpq   4026de <submitr+0x2d7>
  4027bb:	48 b8 45 72 72 6f 72 	movabs $0x55203a726f727245,%rax
  4027c2:	3a 20 55 
  4027c5:	48 ba 6e 61 62 6c 65 	movabs $0x6f7420656c62616e,%rdx
  4027cc:	20 74 6f 
  4027cf:	48 89 45 00          	mov    %rax,0x0(%rbp)
  4027d3:	48 89 55 08          	mov    %rdx,0x8(%rbp)
  4027d7:	48 b8 20 63 6f 6e 6e 	movabs $0x7463656e6e6f6320,%rax
  4027de:	65 63 74 
  4027e1:	48 ba 20 74 6f 20 74 	movabs $0x20656874206f7420,%rdx
  4027e8:	68 65 20 
  4027eb:	48 89 45 10          	mov    %rax,0x10(%rbp)
  4027ef:	48 89 55 18          	mov    %rdx,0x18(%rbp)
  4027f3:	c7 45 20 73 65 72 76 	movl   $0x76726573,0x20(%rbp)
  4027fa:	66 c7 45 24 65 72    	movw   $0x7265,0x24(%rbp)
  402800:	c6 45 26 00          	movb   $0x0,0x26(%rbp)
  402804:	89 df                	mov    %ebx,%edi
  402806:	e8 15 e5 ff ff       	callq  400d20 <close@plt>
  40280b:	b8 ff ff ff ff       	mov    $0xffffffff,%eax
  402810:	e9 c9 fe ff ff       	jmpq   4026de <submitr+0x2d7>
  402815:	48 b8 45 72 72 6f 72 	movabs $0x52203a726f727245,%rax
  40281c:	3a 20 52 
  40281f:	48 ba 65 73 75 6c 74 	movabs $0x747320746c757365,%rdx
  402826:	20 73 74 
  402829:	48 89 45 00          	mov    %rax,0x0(%rbp)
  40282d:	48 89 55 08          	mov    %rdx,0x8(%rbp)
  402831:	48 b8 72 69 6e 67 20 	movabs $0x6f6f7420676e6972,%rax
  402838:	74 6f 6f 
  40283b:	48 ba 20 6c 61 72 67 	movabs $0x202e656772616c20,%rdx
  402842:	65 2e 20 
  402845:	48 89 45 10          	mov    %rax,0x10(%rbp)
  402849:	48 89 55 18          	mov    %rdx,0x18(%rbp)
  40284d:	48 b8 49 6e 63 72 65 	movabs $0x6573616572636e49,%rax
  402854:	61 73 65 
  402857:	48 ba 20 53 55 42 4d 	movabs $0x5254494d42555320,%rdx
  40285e:	49 54 52 
  402861:	48 89 45 20          	mov    %rax,0x20(%rbp)
  402865:	48 89 55 28          	mov    %rdx,0x28(%rbp)
  402869:	48 b8 5f 4d 41 58 42 	movabs $0x46554258414d5f,%rax
  402870:	55 46 00 
  402873:	48 89 45 30          	mov    %rax,0x30(%rbp)
  402877:	89 df                	mov    %ebx,%edi
  402879:	e8 a2 e4 ff ff       	callq  400d20 <close@plt>
  40287e:	b8 ff ff ff ff       	mov    $0xffffffff,%eax
  402883:	e9 56 fe ff ff       	jmpq   4026de <submitr+0x2d7>
  402888:	48 b8 45 72 72 6f 72 	movabs $0x52203a726f727245,%rax
  40288f:	3a 20 52 
  402892:	48 ba 65 73 75 6c 74 	movabs $0x747320746c757365,%rdx
  402899:	20 73 74 
  40289c:	48 89 45 00          	mov    %rax,0x0(%rbp)
  4028a0:	48 89 55 08          	mov    %rdx,0x8(%rbp)
  4028a4:	48 b8 72 69 6e 67 20 	movabs $0x6e6f6320676e6972,%rax
  4028ab:	63 6f 6e 
  4028ae:	48 ba 74 61 69 6e 73 	movabs $0x6e6120736e696174,%rdx
  4028b5:	20 61 6e 
  4028b8:	48 89 45 10          	mov    %rax,0x10(%rbp)
  4028bc:	48 89 55 18          	mov    %rdx,0x18(%rbp)
  4028c0:	48 b8 20 69 6c 6c 65 	movabs $0x6c6167656c6c6920,%rax
  4028c7:	67 61 6c 
  4028ca:	48 ba 20 6f 72 20 75 	movabs $0x72706e7520726f20,%rdx
  4028d1:	6e 70 72 
  4028d4:	48 89 45 20          	mov    %rax,0x20(%rbp)
  4028d8:	48 89 55 28          	mov    %rdx,0x28(%rbp)
  4028dc:	48 b8 69 6e 74 61 62 	movabs $0x20656c6261746e69,%rax
  4028e3:	6c 65 20 
  4028e6:	48 ba 63 68 61 72 61 	movabs $0x6574636172616863,%rdx
  4028ed:	63 74 65 
  4028f0:	48 89 45 30          	mov    %rax,0x30(%rbp)
  4028f4:	48 89 55 38          	mov    %rdx,0x38(%rbp)
  4028f8:	66 c7 45 40 72 2e    	movw   $0x2e72,0x40(%rbp)
  4028fe:	c6 45 42 00          	movb   $0x0,0x42(%rbp)
  402902:	89 df                	mov    %ebx,%edi
  402904:	e8 17 e4 ff ff       	callq  400d20 <close@plt>
  402909:	b8 ff ff ff ff       	mov    $0xffffffff,%eax
  40290e:	e9 cb fd ff ff       	jmpq   4026de <submitr+0x2d7>
  402913:	48 b8 45 72 72 6f 72 	movabs $0x43203a726f727245,%rax
  40291a:	3a 20 43 
  40291d:	48 ba 6c 69 65 6e 74 	movabs $0x6e7520746e65696c,%rdx
  402924:	20 75 6e 
  402927:	48 89 45 00          	mov    %rax,0x0(%rbp)
  40292b:	48 89 55 08          	mov    %rdx,0x8(%rbp)
  40292f:	48 b8 61 62 6c 65 20 	movabs $0x206f7420656c6261,%rax
  402936:	74 6f 20 
  402939:	48 ba 77 72 69 74 65 	movabs $0x6f74206574697277,%rdx
  402940:	20 74 6f 
  402943:	48 89 45 10          	mov    %rax,0x10(%rbp)
  402947:	48 89 55 18          	mov    %rdx,0x18(%rbp)
  40294b:	48 b8 20 74 68 65 20 	movabs $0x7365722065687420,%rax
  402952:	72 65 73 
  402955:	48 ba 75 6c 74 20 73 	movabs $0x7672657320746c75,%rdx
  40295c:	65 72 76 
  40295f:	48 89 45 20          	mov    %rax,0x20(%rbp)
  402963:	48 89 55 28          	mov    %rdx,0x28(%rbp)
  402967:	66 c7 45 30 65 72    	movw   $0x7265,0x30(%rbp)
  40296d:	c6 45 32 00          	movb   $0x0,0x32(%rbp)
  402971:	89 df                	mov    %ebx,%edi
  402973:	e8 a8 e3 ff ff       	callq  400d20 <close@plt>
  402978:	b8 ff ff ff ff       	mov    $0xffffffff,%eax
  40297d:	e9 5c fd ff ff       	jmpq   4026de <submitr+0x2d7>
  402982:	48 b8 45 72 72 6f 72 	movabs $0x43203a726f727245,%rax
  402989:	3a 20 43 
  40298c:	48 ba 6c 69 65 6e 74 	movabs $0x6e7520746e65696c,%rdx
  402993:	20 75 6e 
  402996:	48 89 45 00          	mov    %rax,0x0(%rbp)
  40299a:	48 89 55 08          	mov    %rdx,0x8(%rbp)
  40299e:	48 b8 61 62 6c 65 20 	movabs $0x206f7420656c6261,%rax
  4029a5:	74 6f 20 
  4029a8:	48 ba 72 65 61 64 20 	movabs $0x7269662064616572,%rdx
  4029af:	66 69 72 
  4029b2:	48 89 45 10          	mov    %rax,0x10(%rbp)
  4029b6:	48 89 55 18          	mov    %rdx,0x18(%rbp)
  4029ba:	48 b8 73 74 20 68 65 	movabs $0x6564616568207473,%rax
  4029c1:	61 64 65 
  4029c4:	48 ba 72 20 66 72 6f 	movabs $0x72206d6f72662072,%rdx
  4029cb:	6d 20 72 
  4029ce:	48 89 45 20          	mov    %rax,0x20(%rbp)
  4029d2:	48 89 55 28          	mov    %rdx,0x28(%rbp)
  4029d6:	48 b8 65 73 75 6c 74 	movabs $0x657320746c757365,%rax
  4029dd:	20 73 65 
  4029e0:	48 89 45 30          	mov    %rax,0x30(%rbp)
  4029e4:	c7 45 38 72 76 65 72 	movl   $0x72657672,0x38(%rbp)
  4029eb:	c6 45 3c 00          	movb   $0x0,0x3c(%rbp)
  4029ef:	89 df                	mov    %ebx,%edi
  4029f1:	e8 2a e3 ff ff       	callq  400d20 <close@plt>
  4029f6:	b8 ff ff ff ff       	mov    $0xffffffff,%eax
  4029fb:	e9 de fc ff ff       	jmpq   4026de <submitr+0x2d7>
  402a00:	ba 00 20 00 00       	mov    $0x2000,%edx
  402a05:	48 8d b4 24 40 20 00 	lea    0x2040(%rsp),%rsi
  402a0c:	00 
  402a0d:	48 8d 7c 24 30       	lea    0x30(%rsp),%rdi
  402a12:	e8 3b f8 ff ff       	callq  402252 <rio_readlineb>
  402a17:	48 85 c0             	test   %rax,%rax
  402a1a:	0f 8e 90 00 00 00    	jle    402ab0 <submitr+0x6a9>
  402a20:	44 8b 44 24 1c       	mov    0x1c(%rsp),%r8d
  402a25:	41 81 f8 c8 00 00 00 	cmp    $0xc8,%r8d
  402a2c:	0f 85 02 01 00 00    	jne    402b34 <submitr+0x72d>
  402a32:	48 8d b4 24 40 20 00 	lea    0x2040(%rsp),%rsi
  402a39:	00 
  402a3a:	48 89 ef             	mov    %rbp,%rdi
  402a3d:	e8 6e e2 ff ff       	callq  400cb0 <strcpy@plt>
  402a42:	89 df                	mov    %ebx,%edi
  402a44:	e8 d7 e2 ff ff       	callq  400d20 <close@plt>
  402a49:	bf e0 36 40 00       	mov    $0x4036e0,%edi
  402a4e:	b9 04 00 00 00       	mov    $0x4,%ecx
  402a53:	48 89 ee             	mov    %rbp,%rsi
  402a56:	f3 a6                	repz cmpsb %es:(%rdi),%ds:(%rsi)
  402a58:	0f 97 c0             	seta   %al
  402a5b:	1c 00                	sbb    $0x0,%al
  402a5d:	0f be c0             	movsbl %al,%eax
  402a60:	85 c0                	test   %eax,%eax
  402a62:	0f 84 76 fc ff ff    	je     4026de <submitr+0x2d7>
  402a68:	bf e4 36 40 00       	mov    $0x4036e4,%edi
  402a6d:	b9 05 00 00 00       	mov    $0x5,%ecx
  402a72:	48 89 ee             	mov    %rbp,%rsi
  402a75:	f3 a6                	repz cmpsb %es:(%rdi),%ds:(%rsi)
  402a77:	0f 97 c0             	seta   %al
  402a7a:	1c 00                	sbb    $0x0,%al
  402a7c:	0f be c0             	movsbl %al,%eax
  402a7f:	85 c0                	test   %eax,%eax
  402a81:	0f 84 57 fc ff ff    	je     4026de <submitr+0x2d7>
  402a87:	bf e9 36 40 00       	mov    $0x4036e9,%edi
  402a8c:	b9 03 00 00 00       	mov    $0x3,%ecx
  402a91:	48 89 ee             	mov    %rbp,%rsi
  402a94:	f3 a6                	repz cmpsb %es:(%rdi),%ds:(%rsi)
  402a96:	0f 97 c0             	seta   %al
  402a99:	1c 00                	sbb    $0x0,%al
  402a9b:	0f be c0             	movsbl %al,%eax
  402a9e:	85 c0                	test   %eax,%eax
  402aa0:	0f 84 38 fc ff ff    	je     4026de <submitr+0x2d7>
  402aa6:	b8 ff ff ff ff       	mov    $0xffffffff,%eax
  402aab:	e9 2e fc ff ff       	jmpq   4026de <submitr+0x2d7>
  402ab0:	48 b8 45 72 72 6f 72 	movabs $0x43203a726f727245,%rax
  402ab7:	3a 20 43 
  402aba:	48 ba 6c 69 65 6e 74 	movabs $0x6e7520746e65696c,%rdx
  402ac1:	20 75 6e 
  402ac4:	48 89 45 00          	mov    %rax,0x0(%rbp)
  402ac8:	48 89 55 08          	mov    %rdx,0x8(%rbp)
  402acc:	48 b8 61 62 6c 65 20 	movabs $0x206f7420656c6261,%rax
  402ad3:	74 6f 20 
  402ad6:	48 ba 72 65 61 64 20 	movabs $0x6174732064616572,%rdx
  402add:	73 74 61 
  402ae0:	48 89 45 10          	mov    %rax,0x10(%rbp)
  402ae4:	48 89 55 18          	mov    %rdx,0x18(%rbp)
  402ae8:	48 b8 74 75 73 20 6d 	movabs $0x7373656d20737574,%rax
  402aef:	65 73 73 
  402af2:	48 ba 61 67 65 20 66 	movabs $0x6d6f726620656761,%rdx
  402af9:	72 6f 6d 
  402afc:	48 89 45 20          	mov    %rax,0x20(%rbp)
  402b00:	48 89 55 28          	mov    %rdx,0x28(%rbp)
  402b04:	48 b8 20 72 65 73 75 	movabs $0x20746c7573657220,%rax
  402b0b:	6c 74 20 
  402b0e:	48 89 45 30          	mov    %rax,0x30(%rbp)
  402b12:	c7 45 38 73 65 72 76 	movl   $0x76726573,0x38(%rbp)
  402b19:	66 c7 45 3c 65 72    	movw   $0x7265,0x3c(%rbp)
  402b1f:	c6 45 3e 00          	movb   $0x0,0x3e(%rbp)
  402b23:	89 df                	mov    %ebx,%edi
  402b25:	e8 f6 e1 ff ff       	callq  400d20 <close@plt>
  402b2a:	b8 ff ff ff ff       	mov    $0xffffffff,%eax
  402b2f:	e9 aa fb ff ff       	jmpq   4026de <submitr+0x2d7>
  402b34:	4c 8d 8c 24 40 80 00 	lea    0x8040(%rsp),%r9
  402b3b:	00 
  402b3c:	b9 98 36 40 00       	mov    $0x403698,%ecx
  402b41:	48 c7 c2 ff ff ff ff 	mov    $0xffffffffffffffff,%rdx
  402b48:	be 01 00 00 00       	mov    $0x1,%esi
  402b4d:	48 89 ef             	mov    %rbp,%rdi
  402b50:	b8 00 00 00 00       	mov    $0x0,%eax
  402b55:	e8 06 e3 ff ff       	callq  400e60 <__sprintf_chk@plt>
  402b5a:	89 df                	mov    %ebx,%edi
  402b5c:	e8 bf e1 ff ff       	callq  400d20 <close@plt>
  402b61:	b8 ff ff ff ff       	mov    $0xffffffff,%eax
  402b66:	e9 73 fb ff ff       	jmpq   4026de <submitr+0x2d7>
  402b6b:	e8 70 e1 ff ff       	callq  400ce0 <__stack_chk_fail@plt>

0000000000402b70 <init_timeout>:
  402b70:	85 ff                	test   %edi,%edi
  402b72:	74 26                	je     402b9a <init_timeout+0x2a>
  402b74:	53                   	push   %rbx
  402b75:	89 fb                	mov    %edi,%ebx
  402b77:	85 ff                	test   %edi,%edi
  402b79:	78 18                	js     402b93 <init_timeout+0x23>
  402b7b:	be 3b 21 40 00       	mov    $0x40213b,%esi
  402b80:	bf 0e 00 00 00       	mov    $0xe,%edi
  402b85:	e8 b6 e1 ff ff       	callq  400d40 <signal@plt>
  402b8a:	89 df                	mov    %ebx,%edi
  402b8c:	e8 7f e1 ff ff       	callq  400d10 <alarm@plt>
  402b91:	5b                   	pop    %rbx
  402b92:	c3                   	retq   
  402b93:	bb 00 00 00 00       	mov    $0x0,%ebx
  402b98:	eb e1                	jmp    402b7b <init_timeout+0xb>
  402b9a:	f3 c3                	repz retq 

0000000000402b9c <init_driver>:
  402b9c:	55                   	push   %rbp
  402b9d:	53                   	push   %rbx
  402b9e:	48 83 ec 28          	sub    $0x28,%rsp
  402ba2:	48 89 fd             	mov    %rdi,%rbp
  402ba5:	64 48 8b 04 25 28 00 	mov    %fs:0x28,%rax
  402bac:	00 00 
  402bae:	48 89 44 24 18       	mov    %rax,0x18(%rsp)
  402bb3:	31 c0                	xor    %eax,%eax
  402bb5:	be 01 00 00 00       	mov    $0x1,%esi
  402bba:	bf 0d 00 00 00       	mov    $0xd,%edi
  402bbf:	e8 7c e1 ff ff       	callq  400d40 <signal@plt>
  402bc4:	be 01 00 00 00       	mov    $0x1,%esi
  402bc9:	bf 1d 00 00 00       	mov    $0x1d,%edi
  402bce:	e8 6d e1 ff ff       	callq  400d40 <signal@plt>
  402bd3:	be 01 00 00 00       	mov    $0x1,%esi
  402bd8:	bf 1d 00 00 00       	mov    $0x1d,%edi
  402bdd:	e8 5e e1 ff ff       	callq  400d40 <signal@plt>
  402be2:	ba 00 00 00 00       	mov    $0x0,%edx
  402be7:	be 01 00 00 00       	mov    $0x1,%esi
  402bec:	bf 02 00 00 00       	mov    $0x2,%edi
  402bf1:	e8 7a e2 ff ff       	callq  400e70 <socket@plt>
  402bf6:	85 c0                	test   %eax,%eax
  402bf8:	0f 88 9c 00 00 00    	js     402c9a <init_driver+0xfe>
  402bfe:	89 c3                	mov    %eax,%ebx
  402c00:	bf ec 36 40 00       	mov    $0x4036ec,%edi
  402c05:	e8 46 e1 ff ff       	callq  400d50 <gethostbyname@plt>
  402c0a:	48 85 c0             	test   %rax,%rax
  402c0d:	0f 84 d3 00 00 00    	je     402ce6 <init_driver+0x14a>
  402c13:	48 c7 44 24 02 00 00 	movq   $0x0,0x2(%rsp)
  402c1a:	00 00 
  402c1c:	c7 44 24 0a 00 00 00 	movl   $0x0,0xa(%rsp)
  402c23:	00 
  402c24:	66 c7 44 24 0e 00 00 	movw   $0x0,0xe(%rsp)
  402c2b:	66 c7 04 24 02 00    	movw   $0x2,(%rsp)
  402c31:	48 63 50 14          	movslq 0x14(%rax),%rdx
  402c35:	48 8b 40 18          	mov    0x18(%rax),%rax
  402c39:	48 8b 30             	mov    (%rax),%rsi
  402c3c:	48 8d 7c 24 04       	lea    0x4(%rsp),%rdi
  402c41:	b9 0c 00 00 00       	mov    $0xc,%ecx
  402c46:	e8 15 e1 ff ff       	callq  400d60 <__memmove_chk@plt>
  402c4b:	66 c7 44 24 02 3c 9a 	movw   $0x9a3c,0x2(%rsp)
  402c52:	ba 10 00 00 00       	mov    $0x10,%edx
  402c57:	48 89 e6             	mov    %rsp,%rsi
  402c5a:	89 df                	mov    %ebx,%edi
  402c5c:	e8 df e1 ff ff       	callq  400e40 <connect@plt>
  402c61:	85 c0                	test   %eax,%eax
  402c63:	0f 88 e5 00 00 00    	js     402d4e <init_driver+0x1b2>
  402c69:	89 df                	mov    %ebx,%edi
  402c6b:	e8 b0 e0 ff ff       	callq  400d20 <close@plt>
  402c70:	66 c7 45 00 4f 4b    	movw   $0x4b4f,0x0(%rbp)
  402c76:	c6 45 02 00          	movb   $0x0,0x2(%rbp)
  402c7a:	b8 00 00 00 00       	mov    $0x0,%eax
  402c7f:	48 8b 4c 24 18       	mov    0x18(%rsp),%rcx
  402c84:	64 48 33 0c 25 28 00 	xor    %fs:0x28,%rcx
  402c8b:	00 00 
  402c8d:	0f 85 0e 01 00 00    	jne    402da1 <init_driver+0x205>
  402c93:	48 83 c4 28          	add    $0x28,%rsp
  402c97:	5b                   	pop    %rbx
  402c98:	5d                   	pop    %rbp
  402c99:	c3                   	retq   
  402c9a:	48 b8 45 72 72 6f 72 	movabs $0x43203a726f727245,%rax
  402ca1:	3a 20 43 
  402ca4:	48 ba 6c 69 65 6e 74 	movabs $0x6e7520746e65696c,%rdx
  402cab:	20 75 6e 
  402cae:	48 89 45 00          	mov    %rax,0x0(%rbp)
  402cb2:	48 89 55 08          	mov    %rdx,0x8(%rbp)
  402cb6:	48 b8 61 62 6c 65 20 	movabs $0x206f7420656c6261,%rax
  402cbd:	74 6f 20 
  402cc0:	48 ba 63 72 65 61 74 	movabs $0x7320657461657263,%rdx
  402cc7:	65 20 73 
  402cca:	48 89 45 10          	mov    %rax,0x10(%rbp)
  402cce:	48 89 55 18          	mov    %rdx,0x18(%rbp)
  402cd2:	c7 45 20 6f 63 6b 65 	movl   $0x656b636f,0x20(%rbp)
  402cd9:	66 c7 45 24 74 00    	movw   $0x74,0x24(%rbp)
  402cdf:	b8 ff ff ff ff       	mov    $0xffffffff,%eax
  402ce4:	eb 99                	jmp    402c7f <init_driver+0xe3>
  402ce6:	48 b8 45 72 72 6f 72 	movabs $0x44203a726f727245,%rax
  402ced:	3a 20 44 
  402cf0:	48 ba 4e 53 20 69 73 	movabs $0x6e7520736920534e,%rdx
  402cf7:	20 75 6e 
  402cfa:	48 89 45 00          	mov    %rax,0x0(%rbp)
  402cfe:	48 89 55 08          	mov    %rdx,0x8(%rbp)
  402d02:	48 b8 61 62 6c 65 20 	movabs $0x206f7420656c6261,%rax
  402d09:	74 6f 20 
  402d0c:	48 ba 72 65 73 6f 6c 	movabs $0x2065766c6f736572,%rdx
  402d13:	76 65 20 
  402d16:	48 89 45 10          	mov    %rax,0x10(%rbp)
  402d1a:	48 89 55 18          	mov    %rdx,0x18(%rbp)
  402d1e:	48 b8 73 65 72 76 65 	movabs $0x6120726576726573,%rax
  402d25:	72 20 61 
  402d28:	48 89 45 20          	mov    %rax,0x20(%rbp)
  402d2c:	c7 45 28 64 64 72 65 	movl   $0x65726464,0x28(%rbp)
  402d33:	66 c7 45 2c 73 73    	movw   $0x7373,0x2c(%rbp)
  402d39:	c6 45 2e 00          	movb   $0x0,0x2e(%rbp)
  402d3d:	89 df                	mov    %ebx,%edi
  402d3f:	e8 dc df ff ff       	callq  400d20 <close@plt>
  402d44:	b8 ff ff ff ff       	mov    $0xffffffff,%eax
  402d49:	e9 31 ff ff ff       	jmpq   402c7f <init_driver+0xe3>
  402d4e:	48 b8 45 72 72 6f 72 	movabs $0x55203a726f727245,%rax
  402d55:	3a 20 55 
  402d58:	48 ba 6e 61 62 6c 65 	movabs $0x6f7420656c62616e,%rdx
  402d5f:	20 74 6f 
  402d62:	48 89 45 00          	mov    %rax,0x0(%rbp)
  402d66:	48 89 55 08          	mov    %rdx,0x8(%rbp)
  402d6a:	48 b8 20 63 6f 6e 6e 	movabs $0x7463656e6e6f6320,%rax
  402d71:	65 63 74 
  402d74:	48 ba 20 74 6f 20 73 	movabs $0x76726573206f7420,%rdx
  402d7b:	65 72 76 
  402d7e:	48 89 45 10          	mov    %rax,0x10(%rbp)
  402d82:	48 89 55 18          	mov    %rdx,0x18(%rbp)
  402d86:	66 c7 45 20 65 72    	movw   $0x7265,0x20(%rbp)
  402d8c:	c6 45 22 00          	movb   $0x0,0x22(%rbp)
  402d90:	89 df                	mov    %ebx,%edi
  402d92:	e8 89 df ff ff       	callq  400d20 <close@plt>
  402d97:	b8 ff ff ff ff       	mov    $0xffffffff,%eax
  402d9c:	e9 de fe ff ff       	jmpq   402c7f <init_driver+0xe3>
  402da1:	e8 3a df ff ff       	callq  400ce0 <__stack_chk_fail@plt>

0000000000402da6 <driver_post>:
  402da6:	53                   	push   %rbx
  402da7:	4c 89 cb             	mov    %r9,%rbx
  402daa:	45 85 c0             	test   %r8d,%r8d
  402dad:	75 18                	jne    402dc7 <driver_post+0x21>
  402daf:	48 85 ff             	test   %rdi,%rdi
  402db2:	74 05                	je     402db9 <driver_post+0x13>
  402db4:	80 3f 00             	cmpb   $0x0,(%rdi)
  402db7:	75 35                	jne    402dee <driver_post+0x48>
  402db9:	66 c7 03 4f 4b       	movw   $0x4b4f,(%rbx)
  402dbe:	c6 43 02 00          	movb   $0x0,0x2(%rbx)
  402dc2:	44 89 c0             	mov    %r8d,%eax
  402dc5:	5b                   	pop    %rbx
  402dc6:	c3                   	retq   
  402dc7:	48 89 ca             	mov    %rcx,%rdx
  402dca:	be 04 37 40 00       	mov    $0x403704,%esi
  402dcf:	bf 01 00 00 00       	mov    $0x1,%edi
  402dd4:	b8 00 00 00 00       	mov    $0x0,%eax
  402dd9:	e8 02 e0 ff ff       	callq  400de0 <__printf_chk@plt>
  402dde:	66 c7 03 4f 4b       	movw   $0x4b4f,(%rbx)
  402de3:	c6 43 02 00          	movb   $0x0,0x2(%rbx)
  402de7:	b8 00 00 00 00       	mov    $0x0,%eax
  402dec:	eb d7                	jmp    402dc5 <driver_post+0x1f>
  402dee:	48 83 ec 08          	sub    $0x8,%rsp
  402df2:	41 51                	push   %r9
  402df4:	49 89 c9             	mov    %rcx,%r9
  402df7:	49 89 d0             	mov    %rdx,%r8
  402dfa:	48 89 f9             	mov    %rdi,%rcx
  402dfd:	48 89 f2             	mov    %rsi,%rdx
  402e00:	be 9a 3c 00 00       	mov    $0x3c9a,%esi
  402e05:	bf ec 36 40 00       	mov    $0x4036ec,%edi
  402e0a:	e8 f8 f5 ff ff       	callq  402407 <submitr>
  402e0f:	48 83 c4 10          	add    $0x10,%rsp
  402e13:	eb b0                	jmp    402dc5 <driver_post+0x1f>

0000000000402e15 <check>:
  402e15:	89 f8                	mov    %edi,%eax
  402e17:	c1 e8 1c             	shr    $0x1c,%eax
  402e1a:	85 c0                	test   %eax,%eax
  402e1c:	74 1d                	je     402e3b <check+0x26>
  402e1e:	b9 00 00 00 00       	mov    $0x0,%ecx
  402e23:	83 f9 1f             	cmp    $0x1f,%ecx
  402e26:	7f 0d                	jg     402e35 <check+0x20>
  402e28:	89 f8                	mov    %edi,%eax
  402e2a:	d3 e8                	shr    %cl,%eax
  402e2c:	3c 0a                	cmp    $0xa,%al
  402e2e:	74 11                	je     402e41 <check+0x2c>
  402e30:	83 c1 08             	add    $0x8,%ecx
  402e33:	eb ee                	jmp    402e23 <check+0xe>
  402e35:	b8 01 00 00 00       	mov    $0x1,%eax
  402e3a:	c3                   	retq   
  402e3b:	b8 00 00 00 00       	mov    $0x0,%eax
  402e40:	c3                   	retq   
  402e41:	b8 00 00 00 00       	mov    $0x0,%eax
  402e46:	c3                   	retq   

0000000000402e47 <gencookie>:
  402e47:	53                   	push   %rbx
  402e48:	83 c7 01             	add    $0x1,%edi
  402e4b:	e8 40 de ff ff       	callq  400c90 <srandom@plt>
  402e50:	e8 4b df ff ff       	callq  400da0 <random@plt>
  402e55:	89 c3                	mov    %eax,%ebx
  402e57:	89 c7                	mov    %eax,%edi
  402e59:	e8 b7 ff ff ff       	callq  402e15 <check>
  402e5e:	85 c0                	test   %eax,%eax
  402e60:	74 ee                	je     402e50 <gencookie+0x9>
  402e62:	89 d8                	mov    %ebx,%eax
  402e64:	5b                   	pop    %rbx
  402e65:	c3                   	retq   
  402e66:	66 2e 0f 1f 84 00 00 	nopw   %cs:0x0(%rax,%rax,1)
  402e6d:	00 00 00 

0000000000402e70 <__libc_csu_init>:
  402e70:	41 57                	push   %r15
  402e72:	41 56                	push   %r14
  402e74:	49 89 d7             	mov    %rdx,%r15
  402e77:	41 55                	push   %r13
  402e79:	41 54                	push   %r12
  402e7b:	4c 8d 25 8e 1f 20 00 	lea    0x201f8e(%rip),%r12        # 604e10 <__frame_dummy_init_array_entry>
  402e82:	55                   	push   %rbp
  402e83:	48 8d 2d 8e 1f 20 00 	lea    0x201f8e(%rip),%rbp        # 604e18 <__do_global_dtors_aux_fini_array_entry>
  402e8a:	53                   	push   %rbx
  402e8b:	41 89 fd             	mov    %edi,%r13d
  402e8e:	49 89 f6             	mov    %rsi,%r14
  402e91:	4c 29 e5             	sub    %r12,%rbp
  402e94:	48 83 ec 08          	sub    $0x8,%rsp
  402e98:	48 c1 fd 03          	sar    $0x3,%rbp
  402e9c:	e8 a7 dd ff ff       	callq  400c48 <_init>
  402ea1:	48 85 ed             	test   %rbp,%rbp
  402ea4:	74 20                	je     402ec6 <__libc_csu_init+0x56>
  402ea6:	31 db                	xor    %ebx,%ebx
  402ea8:	0f 1f 84 00 00 00 00 	nopl   0x0(%rax,%rax,1)
  402eaf:	00 
  402eb0:	4c 89 fa             	mov    %r15,%rdx
  402eb3:	4c 89 f6             	mov    %r14,%rsi
  402eb6:	44 89 ef             	mov    %r13d,%edi
  402eb9:	41 ff 14 dc          	callq  *(%r12,%rbx,8)
  402ebd:	48 83 c3 01          	add    $0x1,%rbx
  402ec1:	48 39 dd             	cmp    %rbx,%rbp
  402ec4:	75 ea                	jne    402eb0 <__libc_csu_init+0x40>
  402ec6:	48 83 c4 08          	add    $0x8,%rsp
  402eca:	5b                   	pop    %rbx
  402ecb:	5d                   	pop    %rbp
  402ecc:	41 5c                	pop    %r12
  402ece:	41 5d                	pop    %r13
  402ed0:	41 5e                	pop    %r14
  402ed2:	41 5f                	pop    %r15
  402ed4:	c3                   	retq   
  402ed5:	90                   	nop
  402ed6:	66 2e 0f 1f 84 00 00 	nopw   %cs:0x0(%rax,%rax,1)
  402edd:	00 00 00 

0000000000402ee0 <__libc_csu_fini>:
  402ee0:	f3 c3                	repz retq 

Disassembly of section .fini:

0000000000402ee4 <_fini>:
  402ee4:	48 83 ec 08          	sub    $0x8,%rsp
  402ee8:	48 83 c4 08          	add    $0x8,%rsp
  402eec:	c3                   	retq   
