
rtarget:     file format elf64-x86-64


Disassembly of section .init:

0000000000400c48 <_init>:
  400c48:	48 83 ec 08          	sub    $0x8,%rsp
  400c4c:	48 8b 05 a5 43 20 00 	mov    0x2043a5(%rip),%rax        # 604ff8 <__gmon_start__>
  400c53:	48 85 c0             	test   %rax,%rax
  400c56:	74 02                	je     400c5a <_init+0x12>
  400c58:	ff d0                	callq  *%rax
  400c5a:	48 83 c4 08          	add    $0x8,%rsp
  400c5e:	c3                   	retq   

Disassembly of section .plt:

0000000000400c60 <.plt>:
  400c60:	ff 35 a2 43 20 00    	pushq  0x2043a2(%rip)        # 605008 <_GLOBAL_OFFSET_TABLE_+0x8>
  400c66:	ff 25 a4 43 20 00    	jmpq   *0x2043a4(%rip)        # 605010 <_GLOBAL_OFFSET_TABLE_+0x10>
  400c6c:	0f 1f 40 00          	nopl   0x0(%rax)

0000000000400c70 <strcasecmp@plt>:
  400c70:	ff 25 a2 43 20 00    	jmpq   *0x2043a2(%rip)        # 605018 <strcasecmp@GLIBC_2.2.5>
  400c76:	68 00 00 00 00       	pushq  $0x0
  400c7b:	e9 e0 ff ff ff       	jmpq   400c60 <.plt>

0000000000400c80 <__errno_location@plt>:
  400c80:	ff 25 9a 43 20 00    	jmpq   *0x20439a(%rip)        # 605020 <__errno_location@GLIBC_2.2.5>
  400c86:	68 01 00 00 00       	pushq  $0x1
  400c8b:	e9 d0 ff ff ff       	jmpq   400c60 <.plt>

0000000000400c90 <srandom@plt>:
  400c90:	ff 25 92 43 20 00    	jmpq   *0x204392(%rip)        # 605028 <srandom@GLIBC_2.2.5>
  400c96:	68 02 00 00 00       	pushq  $0x2
  400c9b:	e9 c0 ff ff ff       	jmpq   400c60 <.plt>

0000000000400ca0 <strncmp@plt>:
  400ca0:	ff 25 8a 43 20 00    	jmpq   *0x20438a(%rip)        # 605030 <strncmp@GLIBC_2.2.5>
  400ca6:	68 03 00 00 00       	pushq  $0x3
  400cab:	e9 b0 ff ff ff       	jmpq   400c60 <.plt>

0000000000400cb0 <strcpy@plt>:
  400cb0:	ff 25 82 43 20 00    	jmpq   *0x204382(%rip)        # 605038 <strcpy@GLIBC_2.2.5>
  400cb6:	68 04 00 00 00       	pushq  $0x4
  400cbb:	e9 a0 ff ff ff       	jmpq   400c60 <.plt>

0000000000400cc0 <puts@plt>:
  400cc0:	ff 25 7a 43 20 00    	jmpq   *0x20437a(%rip)        # 605040 <puts@GLIBC_2.2.5>
  400cc6:	68 05 00 00 00       	pushq  $0x5
  400ccb:	e9 90 ff ff ff       	jmpq   400c60 <.plt>

0000000000400cd0 <write@plt>:
  400cd0:	ff 25 72 43 20 00    	jmpq   *0x204372(%rip)        # 605048 <write@GLIBC_2.2.5>
  400cd6:	68 06 00 00 00       	pushq  $0x6
  400cdb:	e9 80 ff ff ff       	jmpq   400c60 <.plt>

0000000000400ce0 <__stack_chk_fail@plt>:
  400ce0:	ff 25 6a 43 20 00    	jmpq   *0x20436a(%rip)        # 605050 <__stack_chk_fail@GLIBC_2.4>
  400ce6:	68 07 00 00 00       	pushq  $0x7
  400ceb:	e9 70 ff ff ff       	jmpq   400c60 <.plt>

0000000000400cf0 <mmap@plt>:
  400cf0:	ff 25 62 43 20 00    	jmpq   *0x204362(%rip)        # 605058 <mmap@GLIBC_2.2.5>
  400cf6:	68 08 00 00 00       	pushq  $0x8
  400cfb:	e9 60 ff ff ff       	jmpq   400c60 <.plt>

0000000000400d00 <memset@plt>:
  400d00:	ff 25 5a 43 20 00    	jmpq   *0x20435a(%rip)        # 605060 <memset@GLIBC_2.2.5>
  400d06:	68 09 00 00 00       	pushq  $0x9
  400d0b:	e9 50 ff ff ff       	jmpq   400c60 <.plt>

0000000000400d10 <alarm@plt>:
  400d10:	ff 25 52 43 20 00    	jmpq   *0x204352(%rip)        # 605068 <alarm@GLIBC_2.2.5>
  400d16:	68 0a 00 00 00       	pushq  $0xa
  400d1b:	e9 40 ff ff ff       	jmpq   400c60 <.plt>

0000000000400d20 <close@plt>:
  400d20:	ff 25 4a 43 20 00    	jmpq   *0x20434a(%rip)        # 605070 <close@GLIBC_2.2.5>
  400d26:	68 0b 00 00 00       	pushq  $0xb
  400d2b:	e9 30 ff ff ff       	jmpq   400c60 <.plt>

0000000000400d30 <read@plt>:
  400d30:	ff 25 42 43 20 00    	jmpq   *0x204342(%rip)        # 605078 <read@GLIBC_2.2.5>
  400d36:	68 0c 00 00 00       	pushq  $0xc
  400d3b:	e9 20 ff ff ff       	jmpq   400c60 <.plt>

0000000000400d40 <signal@plt>:
  400d40:	ff 25 3a 43 20 00    	jmpq   *0x20433a(%rip)        # 605080 <signal@GLIBC_2.2.5>
  400d46:	68 0d 00 00 00       	pushq  $0xd
  400d4b:	e9 10 ff ff ff       	jmpq   400c60 <.plt>

0000000000400d50 <gethostbyname@plt>:
  400d50:	ff 25 32 43 20 00    	jmpq   *0x204332(%rip)        # 605088 <gethostbyname@GLIBC_2.2.5>
  400d56:	68 0e 00 00 00       	pushq  $0xe
  400d5b:	e9 00 ff ff ff       	jmpq   400c60 <.plt>

0000000000400d60 <__memmove_chk@plt>:
  400d60:	ff 25 2a 43 20 00    	jmpq   *0x20432a(%rip)        # 605090 <__memmove_chk@GLIBC_2.3.4>
  400d66:	68 0f 00 00 00       	pushq  $0xf
  400d6b:	e9 f0 fe ff ff       	jmpq   400c60 <.plt>

0000000000400d70 <strtol@plt>:
  400d70:	ff 25 22 43 20 00    	jmpq   *0x204322(%rip)        # 605098 <strtol@GLIBC_2.2.5>
  400d76:	68 10 00 00 00       	pushq  $0x10
  400d7b:	e9 e0 fe ff ff       	jmpq   400c60 <.plt>

0000000000400d80 <memcpy@plt>:
  400d80:	ff 25 1a 43 20 00    	jmpq   *0x20431a(%rip)        # 6050a0 <memcpy@GLIBC_2.14>
  400d86:	68 11 00 00 00       	pushq  $0x11
  400d8b:	e9 d0 fe ff ff       	jmpq   400c60 <.plt>

0000000000400d90 <time@plt>:
  400d90:	ff 25 12 43 20 00    	jmpq   *0x204312(%rip)        # 6050a8 <time@GLIBC_2.2.5>
  400d96:	68 12 00 00 00       	pushq  $0x12
  400d9b:	e9 c0 fe ff ff       	jmpq   400c60 <.plt>

0000000000400da0 <random@plt>:
  400da0:	ff 25 0a 43 20 00    	jmpq   *0x20430a(%rip)        # 6050b0 <random@GLIBC_2.2.5>
  400da6:	68 13 00 00 00       	pushq  $0x13
  400dab:	e9 b0 fe ff ff       	jmpq   400c60 <.plt>

0000000000400db0 <_IO_getc@plt>:
  400db0:	ff 25 02 43 20 00    	jmpq   *0x204302(%rip)        # 6050b8 <_IO_getc@GLIBC_2.2.5>
  400db6:	68 14 00 00 00       	pushq  $0x14
  400dbb:	e9 a0 fe ff ff       	jmpq   400c60 <.plt>

0000000000400dc0 <__isoc99_sscanf@plt>:
  400dc0:	ff 25 fa 42 20 00    	jmpq   *0x2042fa(%rip)        # 6050c0 <__isoc99_sscanf@GLIBC_2.7>
  400dc6:	68 15 00 00 00       	pushq  $0x15
  400dcb:	e9 90 fe ff ff       	jmpq   400c60 <.plt>

0000000000400dd0 <munmap@plt>:
  400dd0:	ff 25 f2 42 20 00    	jmpq   *0x2042f2(%rip)        # 6050c8 <munmap@GLIBC_2.2.5>
  400dd6:	68 16 00 00 00       	pushq  $0x16
  400ddb:	e9 80 fe ff ff       	jmpq   400c60 <.plt>

0000000000400de0 <__printf_chk@plt>:
  400de0:	ff 25 ea 42 20 00    	jmpq   *0x2042ea(%rip)        # 6050d0 <__printf_chk@GLIBC_2.3.4>
  400de6:	68 17 00 00 00       	pushq  $0x17
  400deb:	e9 70 fe ff ff       	jmpq   400c60 <.plt>

0000000000400df0 <fopen@plt>:
  400df0:	ff 25 e2 42 20 00    	jmpq   *0x2042e2(%rip)        # 6050d8 <fopen@GLIBC_2.2.5>
  400df6:	68 18 00 00 00       	pushq  $0x18
  400dfb:	e9 60 fe ff ff       	jmpq   400c60 <.plt>

0000000000400e00 <getopt@plt>:
  400e00:	ff 25 da 42 20 00    	jmpq   *0x2042da(%rip)        # 6050e0 <getopt@GLIBC_2.2.5>
  400e06:	68 19 00 00 00       	pushq  $0x19
  400e0b:	e9 50 fe ff ff       	jmpq   400c60 <.plt>

0000000000400e10 <strtoul@plt>:
  400e10:	ff 25 d2 42 20 00    	jmpq   *0x2042d2(%rip)        # 6050e8 <strtoul@GLIBC_2.2.5>
  400e16:	68 1a 00 00 00       	pushq  $0x1a
  400e1b:	e9 40 fe ff ff       	jmpq   400c60 <.plt>

0000000000400e20 <gethostname@plt>:
  400e20:	ff 25 ca 42 20 00    	jmpq   *0x2042ca(%rip)        # 6050f0 <gethostname@GLIBC_2.2.5>
  400e26:	68 1b 00 00 00       	pushq  $0x1b
  400e2b:	e9 30 fe ff ff       	jmpq   400c60 <.plt>

0000000000400e30 <exit@plt>:
  400e30:	ff 25 c2 42 20 00    	jmpq   *0x2042c2(%rip)        # 6050f8 <exit@GLIBC_2.2.5>
  400e36:	68 1c 00 00 00       	pushq  $0x1c
  400e3b:	e9 20 fe ff ff       	jmpq   400c60 <.plt>

0000000000400e40 <connect@plt>:
  400e40:	ff 25 ba 42 20 00    	jmpq   *0x2042ba(%rip)        # 605100 <connect@GLIBC_2.2.5>
  400e46:	68 1d 00 00 00       	pushq  $0x1d
  400e4b:	e9 10 fe ff ff       	jmpq   400c60 <.plt>

0000000000400e50 <__fprintf_chk@plt>:
  400e50:	ff 25 b2 42 20 00    	jmpq   *0x2042b2(%rip)        # 605108 <__fprintf_chk@GLIBC_2.3.4>
  400e56:	68 1e 00 00 00       	pushq  $0x1e
  400e5b:	e9 00 fe ff ff       	jmpq   400c60 <.plt>

0000000000400e60 <__sprintf_chk@plt>:
  400e60:	ff 25 aa 42 20 00    	jmpq   *0x2042aa(%rip)        # 605110 <__sprintf_chk@GLIBC_2.3.4>
  400e66:	68 1f 00 00 00       	pushq  $0x1f
  400e6b:	e9 f0 fd ff ff       	jmpq   400c60 <.plt>

0000000000400e70 <socket@plt>:
  400e70:	ff 25 a2 42 20 00    	jmpq   *0x2042a2(%rip)        # 605118 <socket@GLIBC_2.2.5>
  400e76:	68 20 00 00 00       	pushq  $0x20
  400e7b:	e9 e0 fd ff ff       	jmpq   400c60 <.plt>

Disassembly of section .text:

0000000000400e80 <_start>:
  400e80:	31 ed                	xor    %ebp,%ebp
  400e82:	49 89 d1             	mov    %rdx,%r9
  400e85:	5e                   	pop    %rsi
  400e86:	48 89 e2             	mov    %rsp,%rdx
  400e89:	48 83 e4 f0          	and    $0xfffffffffffffff0,%rsp
  400e8d:	50                   	push   %rax
  400e8e:	54                   	push   %rsp
  400e8f:	49 c7 c0 00 30 40 00 	mov    $0x403000,%r8
  400e96:	48 c7 c1 90 2f 40 00 	mov    $0x402f90,%rcx
  400e9d:	48 c7 c7 73 11 40 00 	mov    $0x401173,%rdi
  400ea4:	ff 15 46 41 20 00    	callq  *0x204146(%rip)        # 604ff0 <__libc_start_main@GLIBC_2.2.5>
  400eaa:	f4                   	hlt    
  400eab:	0f 1f 44 00 00       	nopl   0x0(%rax,%rax,1)

0000000000400eb0 <_dl_relocate_static_pie>:
  400eb0:	f3 c3                	repz retq 
  400eb2:	66 2e 0f 1f 84 00 00 	nopw   %cs:0x0(%rax,%rax,1)
  400eb9:	00 00 00 
  400ebc:	0f 1f 40 00          	nopl   0x0(%rax)

0000000000400ec0 <deregister_tm_clones>:
  400ec0:	55                   	push   %rbp
  400ec1:	b8 90 54 60 00       	mov    $0x605490,%eax
  400ec6:	48 3d 90 54 60 00    	cmp    $0x605490,%rax
  400ecc:	48 89 e5             	mov    %rsp,%rbp
  400ecf:	74 17                	je     400ee8 <deregister_tm_clones+0x28>
  400ed1:	b8 00 00 00 00       	mov    $0x0,%eax
  400ed6:	48 85 c0             	test   %rax,%rax
  400ed9:	74 0d                	je     400ee8 <deregister_tm_clones+0x28>
  400edb:	5d                   	pop    %rbp
  400edc:	bf 90 54 60 00       	mov    $0x605490,%edi
  400ee1:	ff e0                	jmpq   *%rax
  400ee3:	0f 1f 44 00 00       	nopl   0x0(%rax,%rax,1)
  400ee8:	5d                   	pop    %rbp
  400ee9:	c3                   	retq   
  400eea:	66 0f 1f 44 00 00    	nopw   0x0(%rax,%rax,1)

0000000000400ef0 <register_tm_clones>:
  400ef0:	be 90 54 60 00       	mov    $0x605490,%esi
  400ef5:	55                   	push   %rbp
  400ef6:	48 81 ee 90 54 60 00 	sub    $0x605490,%rsi
  400efd:	48 89 e5             	mov    %rsp,%rbp
  400f00:	48 c1 fe 03          	sar    $0x3,%rsi
  400f04:	48 89 f0             	mov    %rsi,%rax
  400f07:	48 c1 e8 3f          	shr    $0x3f,%rax
  400f0b:	48 01 c6             	add    %rax,%rsi
  400f0e:	48 d1 fe             	sar    %rsi
  400f11:	74 15                	je     400f28 <register_tm_clones+0x38>
  400f13:	b8 00 00 00 00       	mov    $0x0,%eax
  400f18:	48 85 c0             	test   %rax,%rax
  400f1b:	74 0b                	je     400f28 <register_tm_clones+0x38>
  400f1d:	5d                   	pop    %rbp
  400f1e:	bf 90 54 60 00       	mov    $0x605490,%edi
  400f23:	ff e0                	jmpq   *%rax
  400f25:	0f 1f 00             	nopl   (%rax)
  400f28:	5d                   	pop    %rbp
  400f29:	c3                   	retq   
  400f2a:	66 0f 1f 44 00 00    	nopw   0x0(%rax,%rax,1)

0000000000400f30 <__do_global_dtors_aux>:
  400f30:	80 3d 91 45 20 00 00 	cmpb   $0x0,0x204591(%rip)        # 6054c8 <completed.7698>
  400f37:	75 17                	jne    400f50 <__do_global_dtors_aux+0x20>
  400f39:	55                   	push   %rbp
  400f3a:	48 89 e5             	mov    %rsp,%rbp
  400f3d:	e8 7e ff ff ff       	callq  400ec0 <deregister_tm_clones>
  400f42:	c6 05 7f 45 20 00 01 	movb   $0x1,0x20457f(%rip)        # 6054c8 <completed.7698>
  400f49:	5d                   	pop    %rbp
  400f4a:	c3                   	retq   
  400f4b:	0f 1f 44 00 00       	nopl   0x0(%rax,%rax,1)
  400f50:	f3 c3                	repz retq 
  400f52:	0f 1f 40 00          	nopl   0x0(%rax)
  400f56:	66 2e 0f 1f 84 00 00 	nopw   %cs:0x0(%rax,%rax,1)
  400f5d:	00 00 00 

0000000000400f60 <frame_dummy>:
  400f60:	55                   	push   %rbp
  400f61:	48 89 e5             	mov    %rsp,%rbp
  400f64:	5d                   	pop    %rbp
  400f65:	eb 89                	jmp    400ef0 <register_tm_clones>

0000000000400f67 <usage>:
  400f67:	48 83 ec 08          	sub    $0x8,%rsp
  400f6b:	48 89 fa             	mov    %rdi,%rdx
  400f6e:	83 3d 93 45 20 00 00 	cmpl   $0x0,0x204593(%rip)        # 605508 <is_checker>
  400f75:	74 46                	je     400fbd <usage+0x56>
  400f77:	be 18 30 40 00       	mov    $0x403018,%esi
  400f7c:	bf 01 00 00 00       	mov    $0x1,%edi
  400f81:	b8 00 00 00 00       	mov    $0x0,%eax
  400f86:	e8 55 fe ff ff       	callq  400de0 <__printf_chk@plt>
  400f8b:	bf 50 30 40 00       	mov    $0x403050,%edi
  400f90:	e8 2b fd ff ff       	callq  400cc0 <puts@plt>
  400f95:	bf c8 31 40 00       	mov    $0x4031c8,%edi
  400f9a:	e8 21 fd ff ff       	callq  400cc0 <puts@plt>
  400f9f:	bf 78 30 40 00       	mov    $0x403078,%edi
  400fa4:	e8 17 fd ff ff       	callq  400cc0 <puts@plt>
  400fa9:	bf e2 31 40 00       	mov    $0x4031e2,%edi
  400fae:	e8 0d fd ff ff       	callq  400cc0 <puts@plt>
  400fb3:	bf 00 00 00 00       	mov    $0x0,%edi
  400fb8:	e8 73 fe ff ff       	callq  400e30 <exit@plt>
  400fbd:	be fe 31 40 00       	mov    $0x4031fe,%esi
  400fc2:	bf 01 00 00 00       	mov    $0x1,%edi
  400fc7:	b8 00 00 00 00       	mov    $0x0,%eax
  400fcc:	e8 0f fe ff ff       	callq  400de0 <__printf_chk@plt>
  400fd1:	bf a0 30 40 00       	mov    $0x4030a0,%edi
  400fd6:	e8 e5 fc ff ff       	callq  400cc0 <puts@plt>
  400fdb:	bf c8 30 40 00       	mov    $0x4030c8,%edi
  400fe0:	e8 db fc ff ff       	callq  400cc0 <puts@plt>
  400fe5:	bf 1c 32 40 00       	mov    $0x40321c,%edi
  400fea:	e8 d1 fc ff ff       	callq  400cc0 <puts@plt>
  400fef:	eb c2                	jmp    400fb3 <usage+0x4c>

0000000000400ff1 <initialize_target>:
  400ff1:	55                   	push   %rbp
  400ff2:	53                   	push   %rbx
  400ff3:	48 81 ec 18 21 00 00 	sub    $0x2118,%rsp
  400ffa:	89 f5                	mov    %esi,%ebp
  400ffc:	64 48 8b 04 25 28 00 	mov    %fs:0x28,%rax
  401003:	00 00 
  401005:	48 89 84 24 08 21 00 	mov    %rax,0x2108(%rsp)
  40100c:	00 
  40100d:	31 c0                	xor    %eax,%eax
  40100f:	89 3d e3 44 20 00    	mov    %edi,0x2044e3(%rip)        # 6054f8 <check_level>
  401015:	8b 3d 2d 41 20 00    	mov    0x20412d(%rip),%edi        # 605148 <target_id>
  40101b:	e8 48 1f 00 00       	callq  402f68 <gencookie>
  401020:	89 05 de 44 20 00    	mov    %eax,0x2044de(%rip)        # 605504 <cookie>
  401026:	89 c7                	mov    %eax,%edi
  401028:	e8 3b 1f 00 00       	callq  402f68 <gencookie>
  40102d:	89 05 cd 44 20 00    	mov    %eax,0x2044cd(%rip)        # 605500 <authkey>
  401033:	8b 05 0f 41 20 00    	mov    0x20410f(%rip),%eax        # 605148 <target_id>
  401039:	8d 78 01             	lea    0x1(%rax),%edi
  40103c:	e8 4f fc ff ff       	callq  400c90 <srandom@plt>
  401041:	e8 5a fd ff ff       	callq  400da0 <random@plt>
  401046:	89 c7                	mov    %eax,%edi
  401048:	e8 f2 02 00 00       	callq  40133f <scramble>
  40104d:	89 c3                	mov    %eax,%ebx
  40104f:	85 ed                	test   %ebp,%ebp
  401051:	75 54                	jne    4010a7 <initialize_target+0xb6>
  401053:	b8 00 00 00 00       	mov    $0x0,%eax
  401058:	01 d8                	add    %ebx,%eax
  40105a:	0f b7 c0             	movzwl %ax,%eax
  40105d:	8d 04 c5 00 01 00 00 	lea    0x100(,%rax,8),%eax
  401064:	89 c0                	mov    %eax,%eax
  401066:	48 89 05 13 44 20 00 	mov    %rax,0x204413(%rip)        # 605480 <buf_offset>
  40106d:	c6 05 b4 50 20 00 72 	movb   $0x72,0x2050b4(%rip)        # 606128 <target_prefix>
  401074:	83 3d 0d 44 20 00 00 	cmpl   $0x0,0x20440d(%rip)        # 605488 <notify>
  40107b:	74 09                	je     401086 <initialize_target+0x95>
  40107d:	83 3d 84 44 20 00 00 	cmpl   $0x0,0x204484(%rip)        # 605508 <is_checker>
  401084:	74 39                	je     4010bf <initialize_target+0xce>
  401086:	48 8b 84 24 08 21 00 	mov    0x2108(%rsp),%rax
  40108d:	00 
  40108e:	64 48 33 04 25 28 00 	xor    %fs:0x28,%rax
  401095:	00 00 
  401097:	0f 85 d1 00 00 00    	jne    40116e <initialize_target+0x17d>
  40109d:	48 81 c4 18 21 00 00 	add    $0x2118,%rsp
  4010a4:	5b                   	pop    %rbx
  4010a5:	5d                   	pop    %rbp
  4010a6:	c3                   	retq   
  4010a7:	bf 00 00 00 00       	mov    $0x0,%edi
  4010ac:	e8 df fc ff ff       	callq  400d90 <time@plt>
  4010b1:	89 c7                	mov    %eax,%edi
  4010b3:	e8 d8 fb ff ff       	callq  400c90 <srandom@plt>
  4010b8:	e8 e3 fc ff ff       	callq  400da0 <random@plt>
  4010bd:	eb 99                	jmp    401058 <initialize_target+0x67>
  4010bf:	be 00 01 00 00       	mov    $0x100,%esi
  4010c4:	48 89 e7             	mov    %rsp,%rdi
  4010c7:	e8 54 fd ff ff       	callq  400e20 <gethostname@plt>
  4010cc:	89 c5                	mov    %eax,%ebp
  4010ce:	85 c0                	test   %eax,%eax
  4010d0:	75 23                	jne    4010f5 <initialize_target+0x104>
  4010d2:	89 c3                	mov    %eax,%ebx
  4010d4:	48 63 c3             	movslq %ebx,%rax
  4010d7:	48 8b 3c c5 60 51 60 	mov    0x605160(,%rax,8),%rdi
  4010de:	00 
  4010df:	48 85 ff             	test   %rdi,%rdi
  4010e2:	74 2a                	je     40110e <initialize_target+0x11d>
  4010e4:	48 89 e6             	mov    %rsp,%rsi
  4010e7:	e8 84 fb ff ff       	callq  400c70 <strcasecmp@plt>
  4010ec:	85 c0                	test   %eax,%eax
  4010ee:	74 19                	je     401109 <initialize_target+0x118>
  4010f0:	83 c3 01             	add    $0x1,%ebx
  4010f3:	eb df                	jmp    4010d4 <initialize_target+0xe3>
  4010f5:	bf f8 30 40 00       	mov    $0x4030f8,%edi
  4010fa:	e8 c1 fb ff ff       	callq  400cc0 <puts@plt>
  4010ff:	bf 08 00 00 00       	mov    $0x8,%edi
  401104:	e8 27 fd ff ff       	callq  400e30 <exit@plt>
  401109:	bd 01 00 00 00       	mov    $0x1,%ebp
  40110e:	85 ed                	test   %ebp,%ebp
  401110:	74 3b                	je     40114d <initialize_target+0x15c>
  401112:	48 8d bc 24 00 01 00 	lea    0x100(%rsp),%rdi
  401119:	00 
  40111a:	e8 9e 1b 00 00       	callq  402cbd <init_driver>
  40111f:	85 c0                	test   %eax,%eax
  401121:	0f 89 5f ff ff ff    	jns    401086 <initialize_target+0x95>
  401127:	48 8d 94 24 00 01 00 	lea    0x100(%rsp),%rdx
  40112e:	00 
  40112f:	be 70 31 40 00       	mov    $0x403170,%esi
  401134:	bf 01 00 00 00       	mov    $0x1,%edi
  401139:	b8 00 00 00 00       	mov    $0x0,%eax
  40113e:	e8 9d fc ff ff       	callq  400de0 <__printf_chk@plt>
  401143:	bf 08 00 00 00       	mov    $0x8,%edi
  401148:	e8 e3 fc ff ff       	callq  400e30 <exit@plt>
  40114d:	48 89 e2             	mov    %rsp,%rdx
  401150:	be 30 31 40 00       	mov    $0x403130,%esi
  401155:	bf 01 00 00 00       	mov    $0x1,%edi
  40115a:	b8 00 00 00 00       	mov    $0x0,%eax
  40115f:	e8 7c fc ff ff       	callq  400de0 <__printf_chk@plt>
  401164:	bf 08 00 00 00       	mov    $0x8,%edi
  401169:	e8 c2 fc ff ff       	callq  400e30 <exit@plt>
  40116e:	e8 6d fb ff ff       	callq  400ce0 <__stack_chk_fail@plt>

0000000000401173 <main>:
  401173:	41 56                	push   %r14
  401175:	41 55                	push   %r13
  401177:	41 54                	push   %r12
  401179:	55                   	push   %rbp
  40117a:	53                   	push   %rbx
  40117b:	41 89 fc             	mov    %edi,%r12d
  40117e:	48 89 f3             	mov    %rsi,%rbx
  401181:	be fa 1f 40 00       	mov    $0x401ffa,%esi
  401186:	bf 0b 00 00 00       	mov    $0xb,%edi
  40118b:	e8 b0 fb ff ff       	callq  400d40 <signal@plt>
  401190:	be ac 1f 40 00       	mov    $0x401fac,%esi
  401195:	bf 07 00 00 00       	mov    $0x7,%edi
  40119a:	e8 a1 fb ff ff       	callq  400d40 <signal@plt>
  40119f:	be 48 20 40 00       	mov    $0x402048,%esi
  4011a4:	bf 04 00 00 00       	mov    $0x4,%edi
  4011a9:	e8 92 fb ff ff       	callq  400d40 <signal@plt>
  4011ae:	83 3d 53 43 20 00 00 	cmpl   $0x0,0x204353(%rip)        # 605508 <is_checker>
  4011b5:	75 24                	jne    4011db <main+0x68>
  4011b7:	bd 35 32 40 00       	mov    $0x403235,%ebp
  4011bc:	48 8b 05 dd 42 20 00 	mov    0x2042dd(%rip),%rax        # 6054a0 <stdin@@GLIBC_2.2.5>
  4011c3:	48 89 05 26 43 20 00 	mov    %rax,0x204326(%rip)        # 6054f0 <infile>
  4011ca:	41 bd 00 00 00 00    	mov    $0x0,%r13d
  4011d0:	41 be 00 00 00 00    	mov    $0x0,%r14d
  4011d6:	e9 85 00 00 00       	jmpq   401260 <main+0xed>
  4011db:	be 96 20 40 00       	mov    $0x402096,%esi
  4011e0:	bf 0e 00 00 00       	mov    $0xe,%edi
  4011e5:	e8 56 fb ff ff       	callq  400d40 <signal@plt>
  4011ea:	bf 05 00 00 00       	mov    $0x5,%edi
  4011ef:	e8 1c fb ff ff       	callq  400d10 <alarm@plt>
  4011f4:	bd 3a 32 40 00       	mov    $0x40323a,%ebp
  4011f9:	eb c1                	jmp    4011bc <main+0x49>
  4011fb:	48 8b 3b             	mov    (%rbx),%rdi
  4011fe:	e8 64 fd ff ff       	callq  400f67 <usage>
  401203:	be 05 35 40 00       	mov    $0x403505,%esi
  401208:	48 8b 3d 99 42 20 00 	mov    0x204299(%rip),%rdi        # 6054a8 <optarg@@GLIBC_2.2.5>
  40120f:	e8 dc fb ff ff       	callq  400df0 <fopen@plt>
  401214:	48 89 05 d5 42 20 00 	mov    %rax,0x2042d5(%rip)        # 6054f0 <infile>
  40121b:	48 85 c0             	test   %rax,%rax
  40121e:	75 40                	jne    401260 <main+0xed>
  401220:	48 8b 0d 81 42 20 00 	mov    0x204281(%rip),%rcx        # 6054a8 <optarg@@GLIBC_2.2.5>
  401227:	ba 42 32 40 00       	mov    $0x403242,%edx
  40122c:	be 01 00 00 00       	mov    $0x1,%esi
  401231:	48 8b 3d 88 42 20 00 	mov    0x204288(%rip),%rdi        # 6054c0 <stderr@@GLIBC_2.2.5>
  401238:	e8 13 fc ff ff       	callq  400e50 <__fprintf_chk@plt>
  40123d:	b8 01 00 00 00       	mov    $0x1,%eax
  401242:	e9 cc 00 00 00       	jmpq   401313 <main+0x1a0>
  401247:	ba 10 00 00 00       	mov    $0x10,%edx
  40124c:	be 00 00 00 00       	mov    $0x0,%esi
  401251:	48 8b 3d 50 42 20 00 	mov    0x204250(%rip),%rdi        # 6054a8 <optarg@@GLIBC_2.2.5>
  401258:	e8 b3 fb ff ff       	callq  400e10 <strtoul@plt>
  40125d:	41 89 c6             	mov    %eax,%r14d
  401260:	48 89 ea             	mov    %rbp,%rdx
  401263:	48 89 de             	mov    %rbx,%rsi
  401266:	44 89 e7             	mov    %r12d,%edi
  401269:	e8 92 fb ff ff       	callq  400e00 <getopt@plt>
  40126e:	3c ff                	cmp    $0xff,%al
  401270:	74 57                	je     4012c9 <main+0x156>
  401272:	0f be d0             	movsbl %al,%edx
  401275:	83 e8 61             	sub    $0x61,%eax
  401278:	3c 10                	cmp    $0x10,%al
  40127a:	77 31                	ja     4012ad <main+0x13a>
  40127c:	0f b6 c0             	movzbl %al,%eax
  40127f:	ff 24 c5 80 32 40 00 	jmpq   *0x403280(,%rax,8)
  401286:	ba 0a 00 00 00       	mov    $0xa,%edx
  40128b:	be 00 00 00 00       	mov    $0x0,%esi
  401290:	48 8b 3d 11 42 20 00 	mov    0x204211(%rip),%rdi        # 6054a8 <optarg@@GLIBC_2.2.5>
  401297:	e8 d4 fa ff ff       	callq  400d70 <strtol@plt>
  40129c:	41 89 c5             	mov    %eax,%r13d
  40129f:	eb bf                	jmp    401260 <main+0xed>
  4012a1:	c7 05 dd 41 20 00 00 	movl   $0x0,0x2041dd(%rip)        # 605488 <notify>
  4012a8:	00 00 00 
  4012ab:	eb b3                	jmp    401260 <main+0xed>
  4012ad:	be 5f 32 40 00       	mov    $0x40325f,%esi
  4012b2:	bf 01 00 00 00       	mov    $0x1,%edi
  4012b7:	b8 00 00 00 00       	mov    $0x0,%eax
  4012bc:	e8 1f fb ff ff       	callq  400de0 <__printf_chk@plt>
  4012c1:	48 8b 3b             	mov    (%rbx),%rdi
  4012c4:	e8 9e fc ff ff       	callq  400f67 <usage>
  4012c9:	be 01 00 00 00       	mov    $0x1,%esi
  4012ce:	44 89 ef             	mov    %r13d,%edi
  4012d1:	e8 1b fd ff ff       	callq  400ff1 <initialize_target>
  4012d6:	83 3d 2b 42 20 00 00 	cmpl   $0x0,0x20422b(%rip)        # 605508 <is_checker>
  4012dd:	74 09                	je     4012e8 <main+0x175>
  4012df:	44 39 35 1a 42 20 00 	cmp    %r14d,0x20421a(%rip)        # 605500 <authkey>
  4012e6:	75 34                	jne    40131c <main+0x1a9>
  4012e8:	8b 15 16 42 20 00    	mov    0x204216(%rip),%edx        # 605504 <cookie>
  4012ee:	be 72 32 40 00       	mov    $0x403272,%esi
  4012f3:	bf 01 00 00 00       	mov    $0x1,%edi
  4012f8:	b8 00 00 00 00       	mov    $0x0,%eax
  4012fd:	e8 de fa ff ff       	callq  400de0 <__printf_chk@plt>
  401302:	48 8b 3d 77 41 20 00 	mov    0x204177(%rip),%rdi        # 605480 <buf_offset>
  401309:	e8 db 0d 00 00       	callq  4020e9 <launch>
  40130e:	b8 00 00 00 00       	mov    $0x0,%eax
  401313:	5b                   	pop    %rbx
  401314:	5d                   	pop    %rbp
  401315:	41 5c                	pop    %r12
  401317:	41 5d                	pop    %r13
  401319:	41 5e                	pop    %r14
  40131b:	c3                   	retq   
  40131c:	44 89 f2             	mov    %r14d,%edx
  40131f:	be 98 31 40 00       	mov    $0x403198,%esi
  401324:	bf 01 00 00 00       	mov    $0x1,%edi
  401329:	b8 00 00 00 00       	mov    $0x0,%eax
  40132e:	e8 ad fa ff ff       	callq  400de0 <__printf_chk@plt>
  401333:	b8 00 00 00 00       	mov    $0x0,%eax
  401338:	e8 f8 08 00 00       	callq  401c35 <check_fail>
  40133d:	eb a9                	jmp    4012e8 <main+0x175>

000000000040133f <scramble>:
  40133f:	48 83 ec 38          	sub    $0x38,%rsp
  401343:	64 48 8b 04 25 28 00 	mov    %fs:0x28,%rax
  40134a:	00 00 
  40134c:	48 89 44 24 28       	mov    %rax,0x28(%rsp)
  401351:	31 c0                	xor    %eax,%eax
  401353:	eb 10                	jmp    401365 <scramble+0x26>
  401355:	69 d0 ad b3 00 00    	imul   $0xb3ad,%eax,%edx
  40135b:	01 fa                	add    %edi,%edx
  40135d:	89 c1                	mov    %eax,%ecx
  40135f:	89 14 8c             	mov    %edx,(%rsp,%rcx,4)
  401362:	83 c0 01             	add    $0x1,%eax
  401365:	83 f8 09             	cmp    $0x9,%eax
  401368:	76 eb                	jbe    401355 <scramble+0x16>
  40136a:	8b 44 24 1c          	mov    0x1c(%rsp),%eax
  40136e:	69 c0 7f e8 00 00    	imul   $0xe87f,%eax,%eax
  401374:	89 44 24 1c          	mov    %eax,0x1c(%rsp)
  401378:	8b 44 24 24          	mov    0x24(%rsp),%eax
  40137c:	69 c0 9f 5b 00 00    	imul   $0x5b9f,%eax,%eax
  401382:	89 44 24 24          	mov    %eax,0x24(%rsp)
  401386:	8b 44 24 04          	mov    0x4(%rsp),%eax
  40138a:	69 c0 f1 4a 00 00    	imul   $0x4af1,%eax,%eax
  401390:	89 44 24 04          	mov    %eax,0x4(%rsp)
  401394:	8b 44 24 1c          	mov    0x1c(%rsp),%eax
  401398:	69 c0 79 f5 00 00    	imul   $0xf579,%eax,%eax
  40139e:	89 44 24 1c          	mov    %eax,0x1c(%rsp)
  4013a2:	8b 44 24 14          	mov    0x14(%rsp),%eax
  4013a6:	69 c0 39 20 00 00    	imul   $0x2039,%eax,%eax
  4013ac:	89 44 24 14          	mov    %eax,0x14(%rsp)
  4013b0:	8b 44 24 18          	mov    0x18(%rsp),%eax
  4013b4:	69 c0 93 33 00 00    	imul   $0x3393,%eax,%eax
  4013ba:	89 44 24 18          	mov    %eax,0x18(%rsp)
  4013be:	8b 44 24 20          	mov    0x20(%rsp),%eax
  4013c2:	69 c0 ae cd 00 00    	imul   $0xcdae,%eax,%eax
  4013c8:	89 44 24 20          	mov    %eax,0x20(%rsp)
  4013cc:	8b 44 24 1c          	mov    0x1c(%rsp),%eax
  4013d0:	69 c0 b0 c5 00 00    	imul   $0xc5b0,%eax,%eax
  4013d6:	89 44 24 1c          	mov    %eax,0x1c(%rsp)
  4013da:	8b 44 24 0c          	mov    0xc(%rsp),%eax
  4013de:	69 c0 7a 2a 00 00    	imul   $0x2a7a,%eax,%eax
  4013e4:	89 44 24 0c          	mov    %eax,0xc(%rsp)
  4013e8:	8b 44 24 04          	mov    0x4(%rsp),%eax
  4013ec:	69 c0 f2 72 00 00    	imul   $0x72f2,%eax,%eax
  4013f2:	89 44 24 04          	mov    %eax,0x4(%rsp)
  4013f6:	8b 44 24 20          	mov    0x20(%rsp),%eax
  4013fa:	69 c0 e5 76 00 00    	imul   $0x76e5,%eax,%eax
  401400:	89 44 24 20          	mov    %eax,0x20(%rsp)
  401404:	8b 44 24 0c          	mov    0xc(%rsp),%eax
  401408:	69 c0 23 e9 00 00    	imul   $0xe923,%eax,%eax
  40140e:	89 44 24 0c          	mov    %eax,0xc(%rsp)
  401412:	8b 04 24             	mov    (%rsp),%eax
  401415:	69 c0 d8 61 00 00    	imul   $0x61d8,%eax,%eax
  40141b:	89 04 24             	mov    %eax,(%rsp)
  40141e:	8b 44 24 20          	mov    0x20(%rsp),%eax
  401422:	69 c0 b7 83 00 00    	imul   $0x83b7,%eax,%eax
  401428:	89 44 24 20          	mov    %eax,0x20(%rsp)
  40142c:	8b 44 24 1c          	mov    0x1c(%rsp),%eax
  401430:	69 c0 ec a3 00 00    	imul   $0xa3ec,%eax,%eax
  401436:	89 44 24 1c          	mov    %eax,0x1c(%rsp)
  40143a:	8b 44 24 18          	mov    0x18(%rsp),%eax
  40143e:	69 c0 88 d5 00 00    	imul   $0xd588,%eax,%eax
  401444:	89 44 24 18          	mov    %eax,0x18(%rsp)
  401448:	8b 44 24 1c          	mov    0x1c(%rsp),%eax
  40144c:	69 c0 74 60 00 00    	imul   $0x6074,%eax,%eax
  401452:	89 44 24 1c          	mov    %eax,0x1c(%rsp)
  401456:	8b 44 24 04          	mov    0x4(%rsp),%eax
  40145a:	69 c0 7b e4 00 00    	imul   $0xe47b,%eax,%eax
  401460:	89 44 24 04          	mov    %eax,0x4(%rsp)
  401464:	8b 44 24 04          	mov    0x4(%rsp),%eax
  401468:	69 c0 8e 4a 00 00    	imul   $0x4a8e,%eax,%eax
  40146e:	89 44 24 04          	mov    %eax,0x4(%rsp)
  401472:	8b 44 24 04          	mov    0x4(%rsp),%eax
  401476:	69 c0 1d 49 00 00    	imul   $0x491d,%eax,%eax
  40147c:	89 44 24 04          	mov    %eax,0x4(%rsp)
  401480:	8b 04 24             	mov    (%rsp),%eax
  401483:	69 c0 d2 2a 00 00    	imul   $0x2ad2,%eax,%eax
  401489:	89 04 24             	mov    %eax,(%rsp)
  40148c:	8b 04 24             	mov    (%rsp),%eax
  40148f:	69 c0 4f 75 00 00    	imul   $0x754f,%eax,%eax
  401495:	89 04 24             	mov    %eax,(%rsp)
  401498:	8b 44 24 1c          	mov    0x1c(%rsp),%eax
  40149c:	69 c0 9a 86 00 00    	imul   $0x869a,%eax,%eax
  4014a2:	89 44 24 1c          	mov    %eax,0x1c(%rsp)
  4014a6:	8b 44 24 10          	mov    0x10(%rsp),%eax
  4014aa:	69 c0 bd f7 00 00    	imul   $0xf7bd,%eax,%eax
  4014b0:	89 44 24 10          	mov    %eax,0x10(%rsp)
  4014b4:	8b 44 24 14          	mov    0x14(%rsp),%eax
  4014b8:	69 c0 06 d7 00 00    	imul   $0xd706,%eax,%eax
  4014be:	89 44 24 14          	mov    %eax,0x14(%rsp)
  4014c2:	8b 44 24 14          	mov    0x14(%rsp),%eax
  4014c6:	69 c0 9d fd 00 00    	imul   $0xfd9d,%eax,%eax
  4014cc:	89 44 24 14          	mov    %eax,0x14(%rsp)
  4014d0:	8b 04 24             	mov    (%rsp),%eax
  4014d3:	69 c0 e4 5e 00 00    	imul   $0x5ee4,%eax,%eax
  4014d9:	89 04 24             	mov    %eax,(%rsp)
  4014dc:	8b 44 24 10          	mov    0x10(%rsp),%eax
  4014e0:	69 c0 41 1f 00 00    	imul   $0x1f41,%eax,%eax
  4014e6:	89 44 24 10          	mov    %eax,0x10(%rsp)
  4014ea:	8b 04 24             	mov    (%rsp),%eax
  4014ed:	69 c0 0e d6 00 00    	imul   $0xd60e,%eax,%eax
  4014f3:	89 04 24             	mov    %eax,(%rsp)
  4014f6:	8b 44 24 24          	mov    0x24(%rsp),%eax
  4014fa:	69 c0 96 e2 00 00    	imul   $0xe296,%eax,%eax
  401500:	89 44 24 24          	mov    %eax,0x24(%rsp)
  401504:	8b 44 24 20          	mov    0x20(%rsp),%eax
  401508:	69 c0 69 b2 00 00    	imul   $0xb269,%eax,%eax
  40150e:	89 44 24 20          	mov    %eax,0x20(%rsp)
  401512:	8b 44 24 14          	mov    0x14(%rsp),%eax
  401516:	69 c0 67 06 00 00    	imul   $0x667,%eax,%eax
  40151c:	89 44 24 14          	mov    %eax,0x14(%rsp)
  401520:	8b 44 24 08          	mov    0x8(%rsp),%eax
  401524:	69 c0 45 e9 00 00    	imul   $0xe945,%eax,%eax
  40152a:	89 44 24 08          	mov    %eax,0x8(%rsp)
  40152e:	8b 44 24 14          	mov    0x14(%rsp),%eax
  401532:	69 c0 43 be 00 00    	imul   $0xbe43,%eax,%eax
  401538:	89 44 24 14          	mov    %eax,0x14(%rsp)
  40153c:	8b 04 24             	mov    (%rsp),%eax
  40153f:	69 c0 d7 c4 00 00    	imul   $0xc4d7,%eax,%eax
  401545:	89 04 24             	mov    %eax,(%rsp)
  401548:	8b 44 24 04          	mov    0x4(%rsp),%eax
  40154c:	69 c0 9a 9e 00 00    	imul   $0x9e9a,%eax,%eax
  401552:	89 44 24 04          	mov    %eax,0x4(%rsp)
  401556:	8b 44 24 18          	mov    0x18(%rsp),%eax
  40155a:	69 c0 10 84 00 00    	imul   $0x8410,%eax,%eax
  401560:	89 44 24 18          	mov    %eax,0x18(%rsp)
  401564:	8b 44 24 0c          	mov    0xc(%rsp),%eax
  401568:	69 c0 2a e8 00 00    	imul   $0xe82a,%eax,%eax
  40156e:	89 44 24 0c          	mov    %eax,0xc(%rsp)
  401572:	8b 44 24 04          	mov    0x4(%rsp),%eax
  401576:	69 c0 e9 4e 00 00    	imul   $0x4ee9,%eax,%eax
  40157c:	89 44 24 04          	mov    %eax,0x4(%rsp)
  401580:	8b 44 24 10          	mov    0x10(%rsp),%eax
  401584:	69 c0 bf bb 00 00    	imul   $0xbbbf,%eax,%eax
  40158a:	89 44 24 10          	mov    %eax,0x10(%rsp)
  40158e:	8b 44 24 14          	mov    0x14(%rsp),%eax
  401592:	69 c0 97 4a 00 00    	imul   $0x4a97,%eax,%eax
  401598:	89 44 24 14          	mov    %eax,0x14(%rsp)
  40159c:	8b 44 24 0c          	mov    0xc(%rsp),%eax
  4015a0:	69 c0 db 73 00 00    	imul   $0x73db,%eax,%eax
  4015a6:	89 44 24 0c          	mov    %eax,0xc(%rsp)
  4015aa:	8b 04 24             	mov    (%rsp),%eax
  4015ad:	69 c0 1d a0 00 00    	imul   $0xa01d,%eax,%eax
  4015b3:	89 04 24             	mov    %eax,(%rsp)
  4015b6:	8b 04 24             	mov    (%rsp),%eax
  4015b9:	69 c0 37 6a 00 00    	imul   $0x6a37,%eax,%eax
  4015bf:	89 04 24             	mov    %eax,(%rsp)
  4015c2:	8b 44 24 04          	mov    0x4(%rsp),%eax
  4015c6:	69 c0 15 36 00 00    	imul   $0x3615,%eax,%eax
  4015cc:	89 44 24 04          	mov    %eax,0x4(%rsp)
  4015d0:	8b 04 24             	mov    (%rsp),%eax
  4015d3:	69 c0 27 f0 00 00    	imul   $0xf027,%eax,%eax
  4015d9:	89 04 24             	mov    %eax,(%rsp)
  4015dc:	8b 44 24 18          	mov    0x18(%rsp),%eax
  4015e0:	69 c0 ec 04 00 00    	imul   $0x4ec,%eax,%eax
  4015e6:	89 44 24 18          	mov    %eax,0x18(%rsp)
  4015ea:	8b 44 24 1c          	mov    0x1c(%rsp),%eax
  4015ee:	69 c0 5c fb 00 00    	imul   $0xfb5c,%eax,%eax
  4015f4:	89 44 24 1c          	mov    %eax,0x1c(%rsp)
  4015f8:	8b 44 24 14          	mov    0x14(%rsp),%eax
  4015fc:	69 c0 70 e1 00 00    	imul   $0xe170,%eax,%eax
  401602:	89 44 24 14          	mov    %eax,0x14(%rsp)
  401606:	8b 44 24 10          	mov    0x10(%rsp),%eax
  40160a:	69 c0 05 22 00 00    	imul   $0x2205,%eax,%eax
  401610:	89 44 24 10          	mov    %eax,0x10(%rsp)
  401614:	8b 44 24 04          	mov    0x4(%rsp),%eax
  401618:	69 c0 ff c0 00 00    	imul   $0xc0ff,%eax,%eax
  40161e:	89 44 24 04          	mov    %eax,0x4(%rsp)
  401622:	8b 44 24 1c          	mov    0x1c(%rsp),%eax
  401626:	69 c0 f1 95 00 00    	imul   $0x95f1,%eax,%eax
  40162c:	89 44 24 1c          	mov    %eax,0x1c(%rsp)
  401630:	8b 44 24 24          	mov    0x24(%rsp),%eax
  401634:	69 c0 89 d4 00 00    	imul   $0xd489,%eax,%eax
  40163a:	89 44 24 24          	mov    %eax,0x24(%rsp)
  40163e:	8b 44 24 04          	mov    0x4(%rsp),%eax
  401642:	69 c0 ba 4f 00 00    	imul   $0x4fba,%eax,%eax
  401648:	89 44 24 04          	mov    %eax,0x4(%rsp)
  40164c:	8b 04 24             	mov    (%rsp),%eax
  40164f:	69 c0 03 5e 00 00    	imul   $0x5e03,%eax,%eax
  401655:	89 04 24             	mov    %eax,(%rsp)
  401658:	8b 04 24             	mov    (%rsp),%eax
  40165b:	69 c0 63 49 00 00    	imul   $0x4963,%eax,%eax
  401661:	89 04 24             	mov    %eax,(%rsp)
  401664:	8b 44 24 20          	mov    0x20(%rsp),%eax
  401668:	69 c0 d7 c4 00 00    	imul   $0xc4d7,%eax,%eax
  40166e:	89 44 24 20          	mov    %eax,0x20(%rsp)
  401672:	8b 44 24 10          	mov    0x10(%rsp),%eax
  401676:	69 c0 15 52 00 00    	imul   $0x5215,%eax,%eax
  40167c:	89 44 24 10          	mov    %eax,0x10(%rsp)
  401680:	8b 44 24 08          	mov    0x8(%rsp),%eax
  401684:	69 c0 5b 50 00 00    	imul   $0x505b,%eax,%eax
  40168a:	89 44 24 08          	mov    %eax,0x8(%rsp)
  40168e:	8b 44 24 08          	mov    0x8(%rsp),%eax
  401692:	69 c0 20 db 00 00    	imul   $0xdb20,%eax,%eax
  401698:	89 44 24 08          	mov    %eax,0x8(%rsp)
  40169c:	8b 44 24 0c          	mov    0xc(%rsp),%eax
  4016a0:	69 c0 19 09 00 00    	imul   $0x919,%eax,%eax
  4016a6:	89 44 24 0c          	mov    %eax,0xc(%rsp)
  4016aa:	8b 44 24 14          	mov    0x14(%rsp),%eax
  4016ae:	69 c0 ee 6e 00 00    	imul   $0x6eee,%eax,%eax
  4016b4:	89 44 24 14          	mov    %eax,0x14(%rsp)
  4016b8:	8b 44 24 20          	mov    0x20(%rsp),%eax
  4016bc:	69 c0 d5 c1 00 00    	imul   $0xc1d5,%eax,%eax
  4016c2:	89 44 24 20          	mov    %eax,0x20(%rsp)
  4016c6:	8b 04 24             	mov    (%rsp),%eax
  4016c9:	69 c0 37 fc 00 00    	imul   $0xfc37,%eax,%eax
  4016cf:	89 04 24             	mov    %eax,(%rsp)
  4016d2:	8b 44 24 20          	mov    0x20(%rsp),%eax
  4016d6:	69 c0 e9 23 00 00    	imul   $0x23e9,%eax,%eax
  4016dc:	89 44 24 20          	mov    %eax,0x20(%rsp)
  4016e0:	8b 04 24             	mov    (%rsp),%eax
  4016e3:	69 c0 8e 49 00 00    	imul   $0x498e,%eax,%eax
  4016e9:	89 04 24             	mov    %eax,(%rsp)
  4016ec:	8b 44 24 04          	mov    0x4(%rsp),%eax
  4016f0:	69 c0 db de 00 00    	imul   $0xdedb,%eax,%eax
  4016f6:	89 44 24 04          	mov    %eax,0x4(%rsp)
  4016fa:	8b 44 24 24          	mov    0x24(%rsp),%eax
  4016fe:	69 c0 f8 29 00 00    	imul   $0x29f8,%eax,%eax
  401704:	89 44 24 24          	mov    %eax,0x24(%rsp)
  401708:	8b 04 24             	mov    (%rsp),%eax
  40170b:	69 c0 9b 5d 00 00    	imul   $0x5d9b,%eax,%eax
  401711:	89 04 24             	mov    %eax,(%rsp)
  401714:	8b 44 24 18          	mov    0x18(%rsp),%eax
  401718:	69 c0 d8 d6 00 00    	imul   $0xd6d8,%eax,%eax
  40171e:	89 44 24 18          	mov    %eax,0x18(%rsp)
  401722:	8b 44 24 24          	mov    0x24(%rsp),%eax
  401726:	69 c0 2c 85 00 00    	imul   $0x852c,%eax,%eax
  40172c:	89 44 24 24          	mov    %eax,0x24(%rsp)
  401730:	8b 44 24 1c          	mov    0x1c(%rsp),%eax
  401734:	69 c0 38 64 00 00    	imul   $0x6438,%eax,%eax
  40173a:	89 44 24 1c          	mov    %eax,0x1c(%rsp)
  40173e:	8b 44 24 0c          	mov    0xc(%rsp),%eax
  401742:	69 c0 79 dd 00 00    	imul   $0xdd79,%eax,%eax
  401748:	89 44 24 0c          	mov    %eax,0xc(%rsp)
  40174c:	8b 04 24             	mov    (%rsp),%eax
  40174f:	69 c0 f8 ae 00 00    	imul   $0xaef8,%eax,%eax
  401755:	89 04 24             	mov    %eax,(%rsp)
  401758:	8b 44 24 20          	mov    0x20(%rsp),%eax
  40175c:	69 c0 99 72 00 00    	imul   $0x7299,%eax,%eax
  401762:	89 44 24 20          	mov    %eax,0x20(%rsp)
  401766:	8b 44 24 08          	mov    0x8(%rsp),%eax
  40176a:	69 c0 44 b4 00 00    	imul   $0xb444,%eax,%eax
  401770:	89 44 24 08          	mov    %eax,0x8(%rsp)
  401774:	8b 44 24 14          	mov    0x14(%rsp),%eax
  401778:	69 c0 60 55 00 00    	imul   $0x5560,%eax,%eax
  40177e:	89 44 24 14          	mov    %eax,0x14(%rsp)
  401782:	8b 44 24 0c          	mov    0xc(%rsp),%eax
  401786:	69 c0 b8 89 00 00    	imul   $0x89b8,%eax,%eax
  40178c:	89 44 24 0c          	mov    %eax,0xc(%rsp)
  401790:	8b 44 24 0c          	mov    0xc(%rsp),%eax
  401794:	69 c0 7d 8d 00 00    	imul   $0x8d7d,%eax,%eax
  40179a:	89 44 24 0c          	mov    %eax,0xc(%rsp)
  40179e:	8b 44 24 04          	mov    0x4(%rsp),%eax
  4017a2:	69 c0 7b ba 00 00    	imul   $0xba7b,%eax,%eax
  4017a8:	89 44 24 04          	mov    %eax,0x4(%rsp)
  4017ac:	8b 44 24 04          	mov    0x4(%rsp),%eax
  4017b0:	69 c0 2b a4 00 00    	imul   $0xa42b,%eax,%eax
  4017b6:	89 44 24 04          	mov    %eax,0x4(%rsp)
  4017ba:	8b 44 24 10          	mov    0x10(%rsp),%eax
  4017be:	69 c0 4f 96 00 00    	imul   $0x964f,%eax,%eax
  4017c4:	89 44 24 10          	mov    %eax,0x10(%rsp)
  4017c8:	8b 44 24 24          	mov    0x24(%rsp),%eax
  4017cc:	69 c0 89 e3 00 00    	imul   $0xe389,%eax,%eax
  4017d2:	89 44 24 24          	mov    %eax,0x24(%rsp)
  4017d6:	8b 44 24 20          	mov    0x20(%rsp),%eax
  4017da:	69 c0 6b 36 00 00    	imul   $0x366b,%eax,%eax
  4017e0:	89 44 24 20          	mov    %eax,0x20(%rsp)
  4017e4:	8b 44 24 1c          	mov    0x1c(%rsp),%eax
  4017e8:	69 c0 fa 39 00 00    	imul   $0x39fa,%eax,%eax
  4017ee:	89 44 24 1c          	mov    %eax,0x1c(%rsp)
  4017f2:	8b 44 24 08          	mov    0x8(%rsp),%eax
  4017f6:	69 c0 c2 fc 00 00    	imul   $0xfcc2,%eax,%eax
  4017fc:	89 44 24 08          	mov    %eax,0x8(%rsp)
  401800:	8b 44 24 08          	mov    0x8(%rsp),%eax
  401804:	69 c0 7e 2d 00 00    	imul   $0x2d7e,%eax,%eax
  40180a:	89 44 24 08          	mov    %eax,0x8(%rsp)
  40180e:	8b 04 24             	mov    (%rsp),%eax
  401811:	69 c0 2a 09 00 00    	imul   $0x92a,%eax,%eax
  401817:	89 04 24             	mov    %eax,(%rsp)
  40181a:	8b 44 24 10          	mov    0x10(%rsp),%eax
  40181e:	69 c0 47 17 00 00    	imul   $0x1747,%eax,%eax
  401824:	89 44 24 10          	mov    %eax,0x10(%rsp)
  401828:	8b 44 24 10          	mov    0x10(%rsp),%eax
  40182c:	69 c0 cc 38 00 00    	imul   $0x38cc,%eax,%eax
  401832:	89 44 24 10          	mov    %eax,0x10(%rsp)
  401836:	8b 44 24 0c          	mov    0xc(%rsp),%eax
  40183a:	69 c0 3a 42 00 00    	imul   $0x423a,%eax,%eax
  401840:	89 44 24 0c          	mov    %eax,0xc(%rsp)
  401844:	8b 44 24 18          	mov    0x18(%rsp),%eax
  401848:	69 c0 92 05 00 00    	imul   $0x592,%eax,%eax
  40184e:	89 44 24 18          	mov    %eax,0x18(%rsp)
  401852:	8b 44 24 10          	mov    0x10(%rsp),%eax
  401856:	69 c0 44 10 00 00    	imul   $0x1044,%eax,%eax
  40185c:	89 44 24 10          	mov    %eax,0x10(%rsp)
  401860:	8b 44 24 1c          	mov    0x1c(%rsp),%eax
  401864:	69 c0 d0 ae 00 00    	imul   $0xaed0,%eax,%eax
  40186a:	89 44 24 1c          	mov    %eax,0x1c(%rsp)
  40186e:	8b 44 24 24          	mov    0x24(%rsp),%eax
  401872:	69 c0 39 15 00 00    	imul   $0x1539,%eax,%eax
  401878:	89 44 24 24          	mov    %eax,0x24(%rsp)
  40187c:	8b 44 24 10          	mov    0x10(%rsp),%eax
  401880:	69 c0 28 4f 00 00    	imul   $0x4f28,%eax,%eax
  401886:	89 44 24 10          	mov    %eax,0x10(%rsp)
  40188a:	ba 00 00 00 00       	mov    $0x0,%edx
  40188f:	b8 00 00 00 00       	mov    $0x0,%eax
  401894:	eb 0a                	jmp    4018a0 <scramble+0x561>
  401896:	89 d1                	mov    %edx,%ecx
  401898:	8b 0c 8c             	mov    (%rsp,%rcx,4),%ecx
  40189b:	01 c8                	add    %ecx,%eax
  40189d:	83 c2 01             	add    $0x1,%edx
  4018a0:	83 fa 09             	cmp    $0x9,%edx
  4018a3:	76 f1                	jbe    401896 <scramble+0x557>
  4018a5:	48 8b 74 24 28       	mov    0x28(%rsp),%rsi
  4018aa:	64 48 33 34 25 28 00 	xor    %fs:0x28,%rsi
  4018b1:	00 00 
  4018b3:	75 05                	jne    4018ba <scramble+0x57b>
  4018b5:	48 83 c4 38          	add    $0x38,%rsp
  4018b9:	c3                   	retq   
  4018ba:	e8 21 f4 ff ff       	callq  400ce0 <__stack_chk_fail@plt>

00000000004018bf <getbuf>:
  4018bf:	48 83 ec 28          	sub    $0x28,%rsp
  4018c3:	48 89 e7             	mov    %rsp,%rdi
  4018c6:	e8 9f 03 00 00       	callq  401c6a <Gets>
  4018cb:	b8 01 00 00 00       	mov    $0x1,%eax
  4018d0:	48 83 c4 28          	add    $0x28,%rsp
  4018d4:	c3                   	retq   

00000000004018d5 <touch1>:
  4018d5:	48 83 ec 08          	sub    $0x8,%rsp
  4018d9:	c7 05 19 3c 20 00 01 	movl   $0x1,0x203c19(%rip)        # 6054fc <vlevel>
  4018e0:	00 00 00 
  4018e3:	bf 5a 33 40 00       	mov    $0x40335a,%edi
  4018e8:	e8 d3 f3 ff ff       	callq  400cc0 <puts@plt>
  4018ed:	bf 01 00 00 00       	mov    $0x1,%edi
  4018f2:	e8 c8 05 00 00       	callq  401ebf <validate>
  4018f7:	bf 00 00 00 00       	mov    $0x0,%edi
  4018fc:	e8 2f f5 ff ff       	callq  400e30 <exit@plt>

0000000000401901 <touch2>:
  401901:	48 83 ec 08          	sub    $0x8,%rsp
  401905:	89 fa                	mov    %edi,%edx
  401907:	c7 05 eb 3b 20 00 02 	movl   $0x2,0x203beb(%rip)        # 6054fc <vlevel>
  40190e:	00 00 00 
  401911:	39 3d ed 3b 20 00    	cmp    %edi,0x203bed(%rip)        # 605504 <cookie>
  401917:	74 28                	je     401941 <touch2+0x40>
  401919:	be a8 33 40 00       	mov    $0x4033a8,%esi
  40191e:	bf 01 00 00 00       	mov    $0x1,%edi
  401923:	b8 00 00 00 00       	mov    $0x0,%eax
  401928:	e8 b3 f4 ff ff       	callq  400de0 <__printf_chk@plt>
  40192d:	bf 02 00 00 00       	mov    $0x2,%edi
  401932:	e8 4d 06 00 00       	callq  401f84 <fail>
  401937:	bf 00 00 00 00       	mov    $0x0,%edi
  40193c:	e8 ef f4 ff ff       	callq  400e30 <exit@plt>
  401941:	be 80 33 40 00       	mov    $0x403380,%esi
  401946:	bf 01 00 00 00       	mov    $0x1,%edi
  40194b:	b8 00 00 00 00       	mov    $0x0,%eax
  401950:	e8 8b f4 ff ff       	callq  400de0 <__printf_chk@plt>
  401955:	bf 02 00 00 00       	mov    $0x2,%edi
  40195a:	e8 60 05 00 00       	callq  401ebf <validate>
  40195f:	eb d6                	jmp    401937 <touch2+0x36>

0000000000401961 <hexmatch>:
  401961:	41 54                	push   %r12
  401963:	55                   	push   %rbp
  401964:	53                   	push   %rbx
  401965:	48 83 c4 80          	add    $0xffffffffffffff80,%rsp
  401969:	89 fd                	mov    %edi,%ebp
  40196b:	48 89 f3             	mov    %rsi,%rbx
  40196e:	64 48 8b 04 25 28 00 	mov    %fs:0x28,%rax
  401975:	00 00 
  401977:	48 89 44 24 78       	mov    %rax,0x78(%rsp)
  40197c:	31 c0                	xor    %eax,%eax
  40197e:	e8 1d f4 ff ff       	callq  400da0 <random@plt>
  401983:	48 89 c1             	mov    %rax,%rcx
  401986:	48 ba 0b d7 a3 70 3d 	movabs $0xa3d70a3d70a3d70b,%rdx
  40198d:	0a d7 a3 
  401990:	48 f7 ea             	imul   %rdx
  401993:	48 01 ca             	add    %rcx,%rdx
  401996:	48 c1 fa 06          	sar    $0x6,%rdx
  40199a:	48 89 c8             	mov    %rcx,%rax
  40199d:	48 c1 f8 3f          	sar    $0x3f,%rax
  4019a1:	48 29 c2             	sub    %rax,%rdx
  4019a4:	48 8d 04 92          	lea    (%rdx,%rdx,4),%rax
  4019a8:	48 8d 14 80          	lea    (%rax,%rax,4),%rdx
  4019ac:	48 8d 04 95 00 00 00 	lea    0x0(,%rdx,4),%rax
  4019b3:	00 
  4019b4:	48 29 c1             	sub    %rax,%rcx
  4019b7:	4c 8d 24 0c          	lea    (%rsp,%rcx,1),%r12
  4019bb:	41 89 e8             	mov    %ebp,%r8d
  4019be:	b9 77 33 40 00       	mov    $0x403377,%ecx
  4019c3:	48 c7 c2 ff ff ff ff 	mov    $0xffffffffffffffff,%rdx
  4019ca:	be 01 00 00 00       	mov    $0x1,%esi
  4019cf:	4c 89 e7             	mov    %r12,%rdi
  4019d2:	b8 00 00 00 00       	mov    $0x0,%eax
  4019d7:	e8 84 f4 ff ff       	callq  400e60 <__sprintf_chk@plt>
  4019dc:	ba 09 00 00 00       	mov    $0x9,%edx
  4019e1:	4c 89 e6             	mov    %r12,%rsi
  4019e4:	48 89 df             	mov    %rbx,%rdi
  4019e7:	e8 b4 f2 ff ff       	callq  400ca0 <strncmp@plt>
  4019ec:	85 c0                	test   %eax,%eax
  4019ee:	0f 94 c0             	sete   %al
  4019f1:	48 8b 5c 24 78       	mov    0x78(%rsp),%rbx
  4019f6:	64 48 33 1c 25 28 00 	xor    %fs:0x28,%rbx
  4019fd:	00 00 
  4019ff:	75 0c                	jne    401a0d <hexmatch+0xac>
  401a01:	0f b6 c0             	movzbl %al,%eax
  401a04:	48 83 ec 80          	sub    $0xffffffffffffff80,%rsp
  401a08:	5b                   	pop    %rbx
  401a09:	5d                   	pop    %rbp
  401a0a:	41 5c                	pop    %r12
  401a0c:	c3                   	retq   
  401a0d:	e8 ce f2 ff ff       	callq  400ce0 <__stack_chk_fail@plt>

0000000000401a12 <touch3>:
  401a12:	53                   	push   %rbx
  401a13:	48 89 fb             	mov    %rdi,%rbx
  401a16:	c7 05 dc 3a 20 00 03 	movl   $0x3,0x203adc(%rip)        # 6054fc <vlevel>
  401a1d:	00 00 00 
  401a20:	48 89 fe             	mov    %rdi,%rsi
  401a23:	8b 3d db 3a 20 00    	mov    0x203adb(%rip),%edi        # 605504 <cookie>
  401a29:	e8 33 ff ff ff       	callq  401961 <hexmatch>
  401a2e:	85 c0                	test   %eax,%eax
  401a30:	74 2b                	je     401a5d <touch3+0x4b>
  401a32:	48 89 da             	mov    %rbx,%rdx
  401a35:	be d0 33 40 00       	mov    $0x4033d0,%esi
  401a3a:	bf 01 00 00 00       	mov    $0x1,%edi
  401a3f:	b8 00 00 00 00       	mov    $0x0,%eax
  401a44:	e8 97 f3 ff ff       	callq  400de0 <__printf_chk@plt>
  401a49:	bf 03 00 00 00       	mov    $0x3,%edi
  401a4e:	e8 6c 04 00 00       	callq  401ebf <validate>
  401a53:	bf 00 00 00 00       	mov    $0x0,%edi
  401a58:	e8 d3 f3 ff ff       	callq  400e30 <exit@plt>
  401a5d:	48 89 da             	mov    %rbx,%rdx
  401a60:	be f8 33 40 00       	mov    $0x4033f8,%esi
  401a65:	bf 01 00 00 00       	mov    $0x1,%edi
  401a6a:	b8 00 00 00 00       	mov    $0x0,%eax
  401a6f:	e8 6c f3 ff ff       	callq  400de0 <__printf_chk@plt>
  401a74:	bf 03 00 00 00       	mov    $0x3,%edi
  401a79:	e8 06 05 00 00       	callq  401f84 <fail>
  401a7e:	eb d3                	jmp    401a53 <touch3+0x41>

0000000000401a80 <test>:
  401a80:	48 83 ec 08          	sub    $0x8,%rsp
  401a84:	b8 00 00 00 00       	mov    $0x0,%eax
  401a89:	e8 31 fe ff ff       	callq  4018bf <getbuf>
  401a8e:	89 c2                	mov    %eax,%edx
  401a90:	be 20 34 40 00       	mov    $0x403420,%esi
  401a95:	bf 01 00 00 00       	mov    $0x1,%edi
  401a9a:	b8 00 00 00 00       	mov    $0x0,%eax
  401a9f:	e8 3c f3 ff ff       	callq  400de0 <__printf_chk@plt>
  401aa4:	48 83 c4 08          	add    $0x8,%rsp
  401aa8:	c3                   	retq   

0000000000401aa9 <start_farm>:
  401aa9:	b8 01 00 00 00       	mov    $0x1,%eax
  401aae:	c3                   	retq   

0000000000401aaf <setval_488>:
  401aaf:	c7 07 58 90 90 c3    	movl   $0xc3909058,(%rdi)
  401ab5:	c3                   	retq   

0000000000401ab6 <getval_169>:
  401ab6:	b8 2f 3d d8 90       	mov    $0x90d83d2f,%eax
  401abb:	c3                   	retq   

0000000000401abc <setval_452>:
  401abc:	c7 07 48 89 c7 c3    	movl   $0xc3c78948,(%rdi)
  401ac2:	c3                   	retq   

0000000000401ac3 <setval_121>:
  401ac3:	c7 07 48 89 c7 c1    	movl   $0xc1c78948,(%rdi)
  401ac9:	c3                   	retq   

0000000000401aca <addval_166>:
  401aca:	8d 87 7e 48 89 c7    	lea    -0x3876b782(%rdi),%eax
  401ad0:	c3                   	retq   

0000000000401ad1 <getval_414>:
  401ad1:	b8 48 88 c7 90       	mov    $0x90c78848,%eax
  401ad6:	c3                   	retq   

0000000000401ad7 <getval_137>:
  401ad7:	b8 c3 58 c3 9f       	mov    $0x9fc358c3,%eax
  401adc:	c3                   	retq   

0000000000401add <getval_347>:
  401add:	b8 58 c2 6f 4f       	mov    $0x4f6fc258,%eax
  401ae2:	c3                   	retq   

0000000000401ae3 <mid_farm>:
  401ae3:	b8 01 00 00 00       	mov    $0x1,%eax
  401ae8:	c3                   	retq   

0000000000401ae9 <add_xy>:
  401ae9:	48 8d 04 37          	lea    (%rdi,%rsi,1),%rax
  401aed:	c3                   	retq   

0000000000401aee <addval_461>:
  401aee:	8d 87 48 89 e0 c7    	lea    -0x381f76b8(%rdi),%eax
  401af4:	c3                   	retq   

0000000000401af5 <addval_380>:
  401af5:	8d 87 89 ca 18 d2    	lea    -0x2de73577(%rdi),%eax
  401afb:	c3                   	retq   

0000000000401afc <addval_294>:
  401afc:	8d 87 41 b6 81 c1    	lea    -0x3e7e49bf(%rdi),%eax
  401b02:	c3                   	retq   

0000000000401b03 <addval_348>:
  401b03:	8d 87 49 89 e0 c3    	lea    -0x3c1f76b7(%rdi),%eax
  401b09:	c3                   	retq   

0000000000401b0a <getval_228>:
  401b0a:	b8 09 c1 08 c0       	mov    $0xc008c109,%eax
  401b0f:	c3                   	retq   

0000000000401b10 <setval_231>:
  401b10:	c7 07 89 d6 a4 d2    	movl   $0xd2a4d689,(%rdi)
  401b16:	c3                   	retq   

0000000000401b17 <setval_113>:
  401b17:	c7 07 89 d6 60 c9    	movl   $0xc960d689,(%rdi)
  401b1d:	c3                   	retq   

0000000000401b1e <getval_109>:
  401b1e:	b8 89 ca 78 c9       	mov    $0xc978ca89,%eax
  401b23:	c3                   	retq   

0000000000401b24 <addval_401>:
  401b24:	8d 87 8d d6 08 db    	lea    -0x24f72973(%rdi),%eax
  401b2a:	c3                   	retq   

0000000000401b2b <setval_473>:
  401b2b:	c7 07 89 d6 18 c9    	movl   $0xc918d689,(%rdi)
  401b31:	c3                   	retq   

0000000000401b32 <getval_220>:
  401b32:	b8 48 89 e0 c7       	mov    $0xc7e08948,%eax
  401b37:	c3                   	retq   

0000000000401b38 <getval_300>:
  401b38:	b8 89 c1 20 c9       	mov    $0xc920c189,%eax
  401b3d:	c3                   	retq   

0000000000401b3e <getval_292>:
  401b3e:	b8 8d c1 08 d2       	mov    $0xd208c18d,%eax
  401b43:	c3                   	retq   

0000000000401b44 <addval_366>:
  401b44:	8d 87 a3 48 89 e0    	lea    -0x1f76b75d(%rdi),%eax
  401b4a:	c3                   	retq   

0000000000401b4b <getval_407>:
  401b4b:	b8 16 89 ca 92       	mov    $0x92ca8916,%eax
  401b50:	c3                   	retq   

0000000000401b51 <setval_225>:
  401b51:	c7 07 89 d6 08 d2    	movl   $0xd208d689,(%rdi)
  401b57:	c3                   	retq   

0000000000401b58 <setval_351>:
  401b58:	c7 07 dd 99 c1 c3    	movl   $0xc3c199dd,(%rdi)
  401b5e:	c3                   	retq   

0000000000401b5f <addval_272>:
  401b5f:	8d 87 48 89 e0 c7    	lea    -0x381f76b8(%rdi),%eax
  401b65:	c3                   	retq   

0000000000401b66 <setval_209>:
  401b66:	c7 07 89 ca 08 d2    	movl   $0xd208ca89,(%rdi)
  401b6c:	c3                   	retq   

0000000000401b6d <addval_133>:
  401b6d:	8d 87 99 d6 08 c9    	lea    -0x36f72967(%rdi),%eax
  401b73:	c3                   	retq   

0000000000401b74 <setval_103>:
  401b74:	c7 07 49 89 e0 90    	movl   $0x90e08949,(%rdi)
  401b7a:	c3                   	retq   

0000000000401b7b <addval_464>:
  401b7b:	8d 87 8d ca 20 d2    	lea    -0x2ddf3573(%rdi),%eax
  401b81:	c3                   	retq   

0000000000401b82 <getval_279>:
  401b82:	b8 48 89 e0 90       	mov    $0x90e08948,%eax
  401b87:	c3                   	retq   

0000000000401b88 <getval_336>:
  401b88:	b8 89 d6 30 c9       	mov    $0xc930d689,%eax
  401b8d:	c3                   	retq   

0000000000401b8e <addval_115>:
  401b8e:	8d 87 48 89 e0 c2    	lea    -0x3d1f76b8(%rdi),%eax
  401b94:	c3                   	retq   

0000000000401b95 <setval_128>:
  401b95:	c7 07 09 ca 20 c9    	movl   $0xc920ca09,(%rdi)
  401b9b:	c3                   	retq   

0000000000401b9c <setval_354>:
  401b9c:	c7 07 89 ca 08 c9    	movl   $0xc908ca89,(%rdi)
  401ba2:	c3                   	retq   

0000000000401ba3 <setval_477>:
  401ba3:	c7 07 89 d6 38 db    	movl   $0xdb38d689,(%rdi)
  401ba9:	c3                   	retq   

0000000000401baa <getval_437>:
  401baa:	b8 89 c1 48 c9       	mov    $0xc948c189,%eax
  401baf:	c3                   	retq   

0000000000401bb0 <addval_143>:
  401bb0:	8d 87 52 89 ca 91    	lea    -0x6e3576ae(%rdi),%eax
  401bb6:	c3                   	retq   

0000000000401bb7 <getval_362>:
  401bb7:	b8 35 89 c1 90       	mov    $0x90c18935,%eax
  401bbc:	c3                   	retq   

0000000000401bbd <addval_375>:
  401bbd:	8d 87 99 c1 38 db    	lea    -0x24c73e67(%rdi),%eax
  401bc3:	c3                   	retq   

0000000000401bc4 <end_farm>:
  401bc4:	b8 01 00 00 00       	mov    $0x1,%eax
  401bc9:	c3                   	retq   

0000000000401bca <save_char>:
  401bca:	8b 05 54 45 20 00    	mov    0x204554(%rip),%eax        # 606124 <gets_cnt>
  401bd0:	3d ff 03 00 00       	cmp    $0x3ff,%eax
  401bd5:	7f 49                	jg     401c20 <save_char+0x56>
  401bd7:	89 f9                	mov    %edi,%ecx
  401bd9:	c0 e9 04             	shr    $0x4,%cl
  401bdc:	8d 14 40             	lea    (%rax,%rax,2),%edx
  401bdf:	83 e1 0f             	and    $0xf,%ecx
  401be2:	0f b6 b1 40 37 40 00 	movzbl 0x403740(%rcx),%esi
  401be9:	48 63 ca             	movslq %edx,%rcx
  401bec:	40 88 b1 20 55 60 00 	mov    %sil,0x605520(%rcx)
  401bf3:	8d 4a 01             	lea    0x1(%rdx),%ecx
  401bf6:	83 e7 0f             	and    $0xf,%edi
  401bf9:	0f b6 b7 40 37 40 00 	movzbl 0x403740(%rdi),%esi
  401c00:	48 63 c9             	movslq %ecx,%rcx
  401c03:	40 88 b1 20 55 60 00 	mov    %sil,0x605520(%rcx)
  401c0a:	83 c2 02             	add    $0x2,%edx
  401c0d:	48 63 d2             	movslq %edx,%rdx
  401c10:	c6 82 20 55 60 00 20 	movb   $0x20,0x605520(%rdx)
  401c17:	83 c0 01             	add    $0x1,%eax
  401c1a:	89 05 04 45 20 00    	mov    %eax,0x204504(%rip)        # 606124 <gets_cnt>
  401c20:	f3 c3                	repz retq 

0000000000401c22 <save_term>:
  401c22:	8b 05 fc 44 20 00    	mov    0x2044fc(%rip),%eax        # 606124 <gets_cnt>
  401c28:	8d 04 40             	lea    (%rax,%rax,2),%eax
  401c2b:	48 98                	cltq   
  401c2d:	c6 80 20 55 60 00 00 	movb   $0x0,0x605520(%rax)
  401c34:	c3                   	retq   

0000000000401c35 <check_fail>:
  401c35:	48 83 ec 08          	sub    $0x8,%rsp
  401c39:	0f be 15 e8 44 20 00 	movsbl 0x2044e8(%rip),%edx        # 606128 <target_prefix>
  401c40:	41 b8 20 55 60 00    	mov    $0x605520,%r8d
  401c46:	8b 0d ac 38 20 00    	mov    0x2038ac(%rip),%ecx        # 6054f8 <check_level>
  401c4c:	be 43 34 40 00       	mov    $0x403443,%esi
  401c51:	bf 01 00 00 00       	mov    $0x1,%edi
  401c56:	b8 00 00 00 00       	mov    $0x0,%eax
  401c5b:	e8 80 f1 ff ff       	callq  400de0 <__printf_chk@plt>
  401c60:	bf 01 00 00 00       	mov    $0x1,%edi
  401c65:	e8 c6 f1 ff ff       	callq  400e30 <exit@plt>

0000000000401c6a <Gets>:
  401c6a:	41 54                	push   %r12
  401c6c:	55                   	push   %rbp
  401c6d:	53                   	push   %rbx
  401c6e:	49 89 fc             	mov    %rdi,%r12
  401c71:	c7 05 a9 44 20 00 00 	movl   $0x0,0x2044a9(%rip)        # 606124 <gets_cnt>
  401c78:	00 00 00 
  401c7b:	48 89 fb             	mov    %rdi,%rbx
  401c7e:	eb 11                	jmp    401c91 <Gets+0x27>
  401c80:	48 8d 6b 01          	lea    0x1(%rbx),%rbp
  401c84:	88 03                	mov    %al,(%rbx)
  401c86:	0f b6 f8             	movzbl %al,%edi
  401c89:	e8 3c ff ff ff       	callq  401bca <save_char>
  401c8e:	48 89 eb             	mov    %rbp,%rbx
  401c91:	48 8b 3d 58 38 20 00 	mov    0x203858(%rip),%rdi        # 6054f0 <infile>
  401c98:	e8 13 f1 ff ff       	callq  400db0 <_IO_getc@plt>
  401c9d:	83 f8 ff             	cmp    $0xffffffff,%eax
  401ca0:	74 05                	je     401ca7 <Gets+0x3d>
  401ca2:	83 f8 0a             	cmp    $0xa,%eax
  401ca5:	75 d9                	jne    401c80 <Gets+0x16>
  401ca7:	c6 03 00             	movb   $0x0,(%rbx)
  401caa:	b8 00 00 00 00       	mov    $0x0,%eax
  401caf:	e8 6e ff ff ff       	callq  401c22 <save_term>
  401cb4:	4c 89 e0             	mov    %r12,%rax
  401cb7:	5b                   	pop    %rbx
  401cb8:	5d                   	pop    %rbp
  401cb9:	41 5c                	pop    %r12
  401cbb:	c3                   	retq   

0000000000401cbc <notify_server>:
  401cbc:	55                   	push   %rbp
  401cbd:	53                   	push   %rbx
  401cbe:	48 81 ec 18 40 00 00 	sub    $0x4018,%rsp
  401cc5:	64 48 8b 04 25 28 00 	mov    %fs:0x28,%rax
  401ccc:	00 00 
  401cce:	48 89 84 24 08 40 00 	mov    %rax,0x4008(%rsp)
  401cd5:	00 
  401cd6:	31 c0                	xor    %eax,%eax
  401cd8:	83 3d 29 38 20 00 00 	cmpl   $0x0,0x203829(%rip)        # 605508 <is_checker>
  401cdf:	0f 85 c9 00 00 00    	jne    401dae <notify_server+0xf2>
  401ce5:	89 fb                	mov    %edi,%ebx
  401ce7:	8b 05 37 44 20 00    	mov    0x204437(%rip),%eax        # 606124 <gets_cnt>
  401ced:	83 c0 64             	add    $0x64,%eax
  401cf0:	3d 00 20 00 00       	cmp    $0x2000,%eax
  401cf5:	0f 8f d4 00 00 00    	jg     401dcf <notify_server+0x113>
  401cfb:	0f be 05 26 44 20 00 	movsbl 0x204426(%rip),%eax        # 606128 <target_prefix>
  401d02:	83 3d 7f 37 20 00 00 	cmpl   $0x0,0x20377f(%rip)        # 605488 <notify>
  401d09:	0f 84 de 00 00 00    	je     401ded <notify_server+0x131>
  401d0f:	8b 15 eb 37 20 00    	mov    0x2037eb(%rip),%edx        # 605500 <authkey>
  401d15:	85 db                	test   %ebx,%ebx
  401d17:	0f 84 da 00 00 00    	je     401df7 <notify_server+0x13b>
  401d1d:	bd 59 34 40 00       	mov    $0x403459,%ebp
  401d22:	68 20 55 60 00       	pushq  $0x605520
  401d27:	56                   	push   %rsi
  401d28:	50                   	push   %rax
  401d29:	52                   	push   %rdx
  401d2a:	49 89 e9             	mov    %rbp,%r9
  401d2d:	44 8b 05 14 34 20 00 	mov    0x203414(%rip),%r8d        # 605148 <target_id>
  401d34:	b9 63 34 40 00       	mov    $0x403463,%ecx
  401d39:	ba 00 20 00 00       	mov    $0x2000,%edx
  401d3e:	be 01 00 00 00       	mov    $0x1,%esi
  401d43:	48 8d 7c 24 20       	lea    0x20(%rsp),%rdi
  401d48:	b8 00 00 00 00       	mov    $0x0,%eax
  401d4d:	e8 0e f1 ff ff       	callq  400e60 <__sprintf_chk@plt>
  401d52:	48 83 c4 20          	add    $0x20,%rsp
  401d56:	83 3d 2b 37 20 00 00 	cmpl   $0x0,0x20372b(%rip)        # 605488 <notify>
  401d5d:	0f 84 d3 00 00 00    	je     401e36 <notify_server+0x17a>
  401d63:	85 db                	test   %ebx,%ebx
  401d65:	0f 84 bc 00 00 00    	je     401e27 <notify_server+0x16b>
  401d6b:	4c 8d 8c 24 00 20 00 	lea    0x2000(%rsp),%r9
  401d72:	00 
  401d73:	41 b8 00 00 00 00    	mov    $0x0,%r8d
  401d79:	48 89 e1             	mov    %rsp,%rcx
  401d7c:	48 8b 15 cd 33 20 00 	mov    0x2033cd(%rip),%rdx        # 605150 <lab>
  401d83:	48 8b 35 ce 33 20 00 	mov    0x2033ce(%rip),%rsi        # 605158 <course>
  401d8a:	48 8b 3d af 33 20 00 	mov    0x2033af(%rip),%rdi        # 605140 <user_id>
  401d91:	e8 31 11 00 00       	callq  402ec7 <driver_post>
  401d96:	85 c0                	test   %eax,%eax
  401d98:	78 67                	js     401e01 <notify_server+0x145>
  401d9a:	bf a8 35 40 00       	mov    $0x4035a8,%edi
  401d9f:	e8 1c ef ff ff       	callq  400cc0 <puts@plt>
  401da4:	bf 8b 34 40 00       	mov    $0x40348b,%edi
  401da9:	e8 12 ef ff ff       	callq  400cc0 <puts@plt>
  401dae:	48 8b 84 24 08 40 00 	mov    0x4008(%rsp),%rax
  401db5:	00 
  401db6:	64 48 33 04 25 28 00 	xor    %fs:0x28,%rax
  401dbd:	00 00 
  401dbf:	0f 85 f5 00 00 00    	jne    401eba <notify_server+0x1fe>
  401dc5:	48 81 c4 18 40 00 00 	add    $0x4018,%rsp
  401dcc:	5b                   	pop    %rbx
  401dcd:	5d                   	pop    %rbp
  401dce:	c3                   	retq   
  401dcf:	be 78 35 40 00       	mov    $0x403578,%esi
  401dd4:	bf 01 00 00 00       	mov    $0x1,%edi
  401dd9:	b8 00 00 00 00       	mov    $0x0,%eax
  401dde:	e8 fd ef ff ff       	callq  400de0 <__printf_chk@plt>
  401de3:	bf 01 00 00 00       	mov    $0x1,%edi
  401de8:	e8 43 f0 ff ff       	callq  400e30 <exit@plt>
  401ded:	ba ff ff ff ff       	mov    $0xffffffff,%edx
  401df2:	e9 1e ff ff ff       	jmpq   401d15 <notify_server+0x59>
  401df7:	bd 5e 34 40 00       	mov    $0x40345e,%ebp
  401dfc:	e9 21 ff ff ff       	jmpq   401d22 <notify_server+0x66>
  401e01:	48 8d 94 24 00 20 00 	lea    0x2000(%rsp),%rdx
  401e08:	00 
  401e09:	be 7f 34 40 00       	mov    $0x40347f,%esi
  401e0e:	bf 01 00 00 00       	mov    $0x1,%edi
  401e13:	b8 00 00 00 00       	mov    $0x0,%eax
  401e18:	e8 c3 ef ff ff       	callq  400de0 <__printf_chk@plt>
  401e1d:	bf 01 00 00 00       	mov    $0x1,%edi
  401e22:	e8 09 f0 ff ff       	callq  400e30 <exit@plt>
  401e27:	bf 95 34 40 00       	mov    $0x403495,%edi
  401e2c:	e8 8f ee ff ff       	callq  400cc0 <puts@plt>
  401e31:	e9 78 ff ff ff       	jmpq   401dae <notify_server+0xf2>
  401e36:	48 89 ea             	mov    %rbp,%rdx
  401e39:	be e0 35 40 00       	mov    $0x4035e0,%esi
  401e3e:	bf 01 00 00 00       	mov    $0x1,%edi
  401e43:	b8 00 00 00 00       	mov    $0x0,%eax
  401e48:	e8 93 ef ff ff       	callq  400de0 <__printf_chk@plt>
  401e4d:	48 8b 15 ec 32 20 00 	mov    0x2032ec(%rip),%rdx        # 605140 <user_id>
  401e54:	be 9c 34 40 00       	mov    $0x40349c,%esi
  401e59:	bf 01 00 00 00       	mov    $0x1,%edi
  401e5e:	b8 00 00 00 00       	mov    $0x0,%eax
  401e63:	e8 78 ef ff ff       	callq  400de0 <__printf_chk@plt>
  401e68:	48 8b 15 e9 32 20 00 	mov    0x2032e9(%rip),%rdx        # 605158 <course>
  401e6f:	be a9 34 40 00       	mov    $0x4034a9,%esi
  401e74:	bf 01 00 00 00       	mov    $0x1,%edi
  401e79:	b8 00 00 00 00       	mov    $0x0,%eax
  401e7e:	e8 5d ef ff ff       	callq  400de0 <__printf_chk@plt>
  401e83:	48 8b 15 c6 32 20 00 	mov    0x2032c6(%rip),%rdx        # 605150 <lab>
  401e8a:	be b5 34 40 00       	mov    $0x4034b5,%esi
  401e8f:	bf 01 00 00 00       	mov    $0x1,%edi
  401e94:	b8 00 00 00 00       	mov    $0x0,%eax
  401e99:	e8 42 ef ff ff       	callq  400de0 <__printf_chk@plt>
  401e9e:	48 89 e2             	mov    %rsp,%rdx
  401ea1:	be be 34 40 00       	mov    $0x4034be,%esi
  401ea6:	bf 01 00 00 00       	mov    $0x1,%edi
  401eab:	b8 00 00 00 00       	mov    $0x0,%eax
  401eb0:	e8 2b ef ff ff       	callq  400de0 <__printf_chk@plt>
  401eb5:	e9 f4 fe ff ff       	jmpq   401dae <notify_server+0xf2>
  401eba:	e8 21 ee ff ff       	callq  400ce0 <__stack_chk_fail@plt>

0000000000401ebf <validate>:
  401ebf:	53                   	push   %rbx
  401ec0:	89 fb                	mov    %edi,%ebx
  401ec2:	83 3d 3f 36 20 00 00 	cmpl   $0x0,0x20363f(%rip)        # 605508 <is_checker>
  401ec9:	74 6b                	je     401f36 <validate+0x77>
  401ecb:	39 3d 2b 36 20 00    	cmp    %edi,0x20362b(%rip)        # 6054fc <vlevel>
  401ed1:	75 2f                	jne    401f02 <validate+0x43>
  401ed3:	8b 15 1f 36 20 00    	mov    0x20361f(%rip),%edx        # 6054f8 <check_level>
  401ed9:	39 fa                	cmp    %edi,%edx
  401edb:	75 39                	jne    401f16 <validate+0x57>
  401edd:	0f be 15 44 42 20 00 	movsbl 0x204244(%rip),%edx        # 606128 <target_prefix>
  401ee4:	41 b8 20 55 60 00    	mov    $0x605520,%r8d
  401eea:	89 f9                	mov    %edi,%ecx
  401eec:	be e8 34 40 00       	mov    $0x4034e8,%esi
  401ef1:	bf 01 00 00 00       	mov    $0x1,%edi
  401ef6:	b8 00 00 00 00       	mov    $0x0,%eax
  401efb:	e8 e0 ee ff ff       	callq  400de0 <__printf_chk@plt>
  401f00:	5b                   	pop    %rbx
  401f01:	c3                   	retq   
  401f02:	bf ca 34 40 00       	mov    $0x4034ca,%edi
  401f07:	e8 b4 ed ff ff       	callq  400cc0 <puts@plt>
  401f0c:	b8 00 00 00 00       	mov    $0x0,%eax
  401f11:	e8 1f fd ff ff       	callq  401c35 <check_fail>
  401f16:	89 f9                	mov    %edi,%ecx
  401f18:	be 08 36 40 00       	mov    $0x403608,%esi
  401f1d:	bf 01 00 00 00       	mov    $0x1,%edi
  401f22:	b8 00 00 00 00       	mov    $0x0,%eax
  401f27:	e8 b4 ee ff ff       	callq  400de0 <__printf_chk@plt>
  401f2c:	b8 00 00 00 00       	mov    $0x0,%eax
  401f31:	e8 ff fc ff ff       	callq  401c35 <check_fail>
  401f36:	39 3d c0 35 20 00    	cmp    %edi,0x2035c0(%rip)        # 6054fc <vlevel>
  401f3c:	74 18                	je     401f56 <validate+0x97>
  401f3e:	bf ca 34 40 00       	mov    $0x4034ca,%edi
  401f43:	e8 78 ed ff ff       	callq  400cc0 <puts@plt>
  401f48:	89 de                	mov    %ebx,%esi
  401f4a:	bf 00 00 00 00       	mov    $0x0,%edi
  401f4f:	e8 68 fd ff ff       	callq  401cbc <notify_server>
  401f54:	eb aa                	jmp    401f00 <validate+0x41>
  401f56:	0f be 0d cb 41 20 00 	movsbl 0x2041cb(%rip),%ecx        # 606128 <target_prefix>
  401f5d:	89 fa                	mov    %edi,%edx
  401f5f:	be 30 36 40 00       	mov    $0x403630,%esi
  401f64:	bf 01 00 00 00       	mov    $0x1,%edi
  401f69:	b8 00 00 00 00       	mov    $0x0,%eax
  401f6e:	e8 6d ee ff ff       	callq  400de0 <__printf_chk@plt>
  401f73:	89 de                	mov    %ebx,%esi
  401f75:	bf 01 00 00 00       	mov    $0x1,%edi
  401f7a:	e8 3d fd ff ff       	callq  401cbc <notify_server>
  401f7f:	e9 7c ff ff ff       	jmpq   401f00 <validate+0x41>

0000000000401f84 <fail>:
  401f84:	48 83 ec 08          	sub    $0x8,%rsp
  401f88:	83 3d 79 35 20 00 00 	cmpl   $0x0,0x203579(%rip)        # 605508 <is_checker>
  401f8f:	75 11                	jne    401fa2 <fail+0x1e>
  401f91:	89 fe                	mov    %edi,%esi
  401f93:	bf 00 00 00 00       	mov    $0x0,%edi
  401f98:	e8 1f fd ff ff       	callq  401cbc <notify_server>
  401f9d:	48 83 c4 08          	add    $0x8,%rsp
  401fa1:	c3                   	retq   
  401fa2:	b8 00 00 00 00       	mov    $0x0,%eax
  401fa7:	e8 89 fc ff ff       	callq  401c35 <check_fail>

0000000000401fac <bushandler>:
  401fac:	48 83 ec 08          	sub    $0x8,%rsp
  401fb0:	83 3d 51 35 20 00 00 	cmpl   $0x0,0x203551(%rip)        # 605508 <is_checker>
  401fb7:	74 14                	je     401fcd <bushandler+0x21>
  401fb9:	bf fd 34 40 00       	mov    $0x4034fd,%edi
  401fbe:	e8 fd ec ff ff       	callq  400cc0 <puts@plt>
  401fc3:	b8 00 00 00 00       	mov    $0x0,%eax
  401fc8:	e8 68 fc ff ff       	callq  401c35 <check_fail>
  401fcd:	bf 68 36 40 00       	mov    $0x403668,%edi
  401fd2:	e8 e9 ec ff ff       	callq  400cc0 <puts@plt>
  401fd7:	bf 07 35 40 00       	mov    $0x403507,%edi
  401fdc:	e8 df ec ff ff       	callq  400cc0 <puts@plt>
  401fe1:	be 00 00 00 00       	mov    $0x0,%esi
  401fe6:	bf 00 00 00 00       	mov    $0x0,%edi
  401feb:	e8 cc fc ff ff       	callq  401cbc <notify_server>
  401ff0:	bf 01 00 00 00       	mov    $0x1,%edi
  401ff5:	e8 36 ee ff ff       	callq  400e30 <exit@plt>

0000000000401ffa <seghandler>:
  401ffa:	48 83 ec 08          	sub    $0x8,%rsp
  401ffe:	83 3d 03 35 20 00 00 	cmpl   $0x0,0x203503(%rip)        # 605508 <is_checker>
  402005:	74 14                	je     40201b <seghandler+0x21>
  402007:	bf 1d 35 40 00       	mov    $0x40351d,%edi
  40200c:	e8 af ec ff ff       	callq  400cc0 <puts@plt>
  402011:	b8 00 00 00 00       	mov    $0x0,%eax
  402016:	e8 1a fc ff ff       	callq  401c35 <check_fail>
  40201b:	bf 88 36 40 00       	mov    $0x403688,%edi
  402020:	e8 9b ec ff ff       	callq  400cc0 <puts@plt>
  402025:	bf 07 35 40 00       	mov    $0x403507,%edi
  40202a:	e8 91 ec ff ff       	callq  400cc0 <puts@plt>
  40202f:	be 00 00 00 00       	mov    $0x0,%esi
  402034:	bf 00 00 00 00       	mov    $0x0,%edi
  402039:	e8 7e fc ff ff       	callq  401cbc <notify_server>
  40203e:	bf 01 00 00 00       	mov    $0x1,%edi
  402043:	e8 e8 ed ff ff       	callq  400e30 <exit@plt>

0000000000402048 <illegalhandler>:
  402048:	48 83 ec 08          	sub    $0x8,%rsp
  40204c:	83 3d b5 34 20 00 00 	cmpl   $0x0,0x2034b5(%rip)        # 605508 <is_checker>
  402053:	74 14                	je     402069 <illegalhandler+0x21>
  402055:	bf 30 35 40 00       	mov    $0x403530,%edi
  40205a:	e8 61 ec ff ff       	callq  400cc0 <puts@plt>
  40205f:	b8 00 00 00 00       	mov    $0x0,%eax
  402064:	e8 cc fb ff ff       	callq  401c35 <check_fail>
  402069:	bf b0 36 40 00       	mov    $0x4036b0,%edi
  40206e:	e8 4d ec ff ff       	callq  400cc0 <puts@plt>
  402073:	bf 07 35 40 00       	mov    $0x403507,%edi
  402078:	e8 43 ec ff ff       	callq  400cc0 <puts@plt>
  40207d:	be 00 00 00 00       	mov    $0x0,%esi
  402082:	bf 00 00 00 00       	mov    $0x0,%edi
  402087:	e8 30 fc ff ff       	callq  401cbc <notify_server>
  40208c:	bf 01 00 00 00       	mov    $0x1,%edi
  402091:	e8 9a ed ff ff       	callq  400e30 <exit@plt>

0000000000402096 <sigalrmhandler>:
  402096:	48 83 ec 08          	sub    $0x8,%rsp
  40209a:	83 3d 67 34 20 00 00 	cmpl   $0x0,0x203467(%rip)        # 605508 <is_checker>
  4020a1:	74 14                	je     4020b7 <sigalrmhandler+0x21>
  4020a3:	bf 44 35 40 00       	mov    $0x403544,%edi
  4020a8:	e8 13 ec ff ff       	callq  400cc0 <puts@plt>
  4020ad:	b8 00 00 00 00       	mov    $0x0,%eax
  4020b2:	e8 7e fb ff ff       	callq  401c35 <check_fail>
  4020b7:	ba 05 00 00 00       	mov    $0x5,%edx
  4020bc:	be e0 36 40 00       	mov    $0x4036e0,%esi
  4020c1:	bf 01 00 00 00       	mov    $0x1,%edi
  4020c6:	b8 00 00 00 00       	mov    $0x0,%eax
  4020cb:	e8 10 ed ff ff       	callq  400de0 <__printf_chk@plt>
  4020d0:	be 00 00 00 00       	mov    $0x0,%esi
  4020d5:	bf 00 00 00 00       	mov    $0x0,%edi
  4020da:	e8 dd fb ff ff       	callq  401cbc <notify_server>
  4020df:	bf 01 00 00 00       	mov    $0x1,%edi
  4020e4:	e8 47 ed ff ff       	callq  400e30 <exit@plt>

00000000004020e9 <launch>:
  4020e9:	55                   	push   %rbp
  4020ea:	48 89 e5             	mov    %rsp,%rbp
  4020ed:	48 83 ec 10          	sub    $0x10,%rsp
  4020f1:	48 89 fa             	mov    %rdi,%rdx
  4020f4:	64 48 8b 04 25 28 00 	mov    %fs:0x28,%rax
  4020fb:	00 00 
  4020fd:	48 89 45 f8          	mov    %rax,-0x8(%rbp)
  402101:	31 c0                	xor    %eax,%eax
  402103:	48 8d 47 1e          	lea    0x1e(%rdi),%rax
  402107:	48 83 e0 f0          	and    $0xfffffffffffffff0,%rax
  40210b:	48 29 c4             	sub    %rax,%rsp
  40210e:	48 8d 7c 24 0f       	lea    0xf(%rsp),%rdi
  402113:	48 83 e7 f0          	and    $0xfffffffffffffff0,%rdi
  402117:	be f4 00 00 00       	mov    $0xf4,%esi
  40211c:	e8 df eb ff ff       	callq  400d00 <memset@plt>
  402121:	48 8b 05 78 33 20 00 	mov    0x203378(%rip),%rax        # 6054a0 <stdin@@GLIBC_2.2.5>
  402128:	48 39 05 c1 33 20 00 	cmp    %rax,0x2033c1(%rip)        # 6054f0 <infile>
  40212f:	74 38                	je     402169 <launch+0x80>
  402131:	c7 05 c1 33 20 00 00 	movl   $0x0,0x2033c1(%rip)        # 6054fc <vlevel>
  402138:	00 00 00 
  40213b:	b8 00 00 00 00       	mov    $0x0,%eax
  402140:	e8 3b f9 ff ff       	callq  401a80 <test>
  402145:	83 3d bc 33 20 00 00 	cmpl   $0x0,0x2033bc(%rip)        # 605508 <is_checker>
  40214c:	75 31                	jne    40217f <launch+0x96>
  40214e:	bf 64 35 40 00       	mov    $0x403564,%edi
  402153:	e8 68 eb ff ff       	callq  400cc0 <puts@plt>
  402158:	48 8b 45 f8          	mov    -0x8(%rbp),%rax
  40215c:	64 48 33 04 25 28 00 	xor    %fs:0x28,%rax
  402163:	00 00 
  402165:	75 2c                	jne    402193 <launch+0xaa>
  402167:	c9                   	leaveq 
  402168:	c3                   	retq   
  402169:	be 4c 35 40 00       	mov    $0x40354c,%esi
  40216e:	bf 01 00 00 00       	mov    $0x1,%edi
  402173:	b8 00 00 00 00       	mov    $0x0,%eax
  402178:	e8 63 ec ff ff       	callq  400de0 <__printf_chk@plt>
  40217d:	eb b2                	jmp    402131 <launch+0x48>
  40217f:	bf 59 35 40 00       	mov    $0x403559,%edi
  402184:	e8 37 eb ff ff       	callq  400cc0 <puts@plt>
  402189:	b8 00 00 00 00       	mov    $0x0,%eax
  40218e:	e8 a2 fa ff ff       	callq  401c35 <check_fail>
  402193:	e8 48 eb ff ff       	callq  400ce0 <__stack_chk_fail@plt>

0000000000402198 <stable_launch>:
  402198:	53                   	push   %rbx
  402199:	48 89 3d 48 33 20 00 	mov    %rdi,0x203348(%rip)        # 6054e8 <global_offset>
  4021a0:	41 b9 00 00 00 00    	mov    $0x0,%r9d
  4021a6:	41 b8 00 00 00 00    	mov    $0x0,%r8d
  4021ac:	b9 32 01 00 00       	mov    $0x132,%ecx
  4021b1:	ba 07 00 00 00       	mov    $0x7,%edx
  4021b6:	be 00 00 10 00       	mov    $0x100000,%esi
  4021bb:	bf 00 60 58 55       	mov    $0x55586000,%edi
  4021c0:	e8 2b eb ff ff       	callq  400cf0 <mmap@plt>
  4021c5:	48 89 c3             	mov    %rax,%rbx
  4021c8:	48 3d 00 60 58 55    	cmp    $0x55586000,%rax
  4021ce:	75 43                	jne    402213 <stable_launch+0x7b>
  4021d0:	48 8d 90 f8 ff 0f 00 	lea    0xffff8(%rax),%rdx
  4021d7:	48 89 15 52 3f 20 00 	mov    %rdx,0x203f52(%rip)        # 606130 <stack_top>
  4021de:	48 89 e0             	mov    %rsp,%rax
  4021e1:	48 89 d4             	mov    %rdx,%rsp
  4021e4:	48 89 c2             	mov    %rax,%rdx
  4021e7:	48 89 15 f2 32 20 00 	mov    %rdx,0x2032f2(%rip)        # 6054e0 <global_save_stack>
  4021ee:	48 8b 3d f3 32 20 00 	mov    0x2032f3(%rip),%rdi        # 6054e8 <global_offset>
  4021f5:	e8 ef fe ff ff       	callq  4020e9 <launch>
  4021fa:	48 8b 05 df 32 20 00 	mov    0x2032df(%rip),%rax        # 6054e0 <global_save_stack>
  402201:	48 89 c4             	mov    %rax,%rsp
  402204:	be 00 00 10 00       	mov    $0x100000,%esi
  402209:	48 89 df             	mov    %rbx,%rdi
  40220c:	e8 bf eb ff ff       	callq  400dd0 <munmap@plt>
  402211:	5b                   	pop    %rbx
  402212:	c3                   	retq   
  402213:	be 00 00 10 00       	mov    $0x100000,%esi
  402218:	48 89 c7             	mov    %rax,%rdi
  40221b:	e8 b0 eb ff ff       	callq  400dd0 <munmap@plt>
  402220:	b9 00 60 58 55       	mov    $0x55586000,%ecx
  402225:	ba 18 37 40 00       	mov    $0x403718,%edx
  40222a:	be 01 00 00 00       	mov    $0x1,%esi
  40222f:	48 8b 3d 8a 32 20 00 	mov    0x20328a(%rip),%rdi        # 6054c0 <stderr@@GLIBC_2.2.5>
  402236:	b8 00 00 00 00       	mov    $0x0,%eax
  40223b:	e8 10 ec ff ff       	callq  400e50 <__fprintf_chk@plt>
  402240:	bf 01 00 00 00       	mov    $0x1,%edi
  402245:	e8 e6 eb ff ff       	callq  400e30 <exit@plt>

000000000040224a <rio_readinitb>:
  40224a:	89 37                	mov    %esi,(%rdi)
  40224c:	c7 47 04 00 00 00 00 	movl   $0x0,0x4(%rdi)
  402253:	48 8d 47 10          	lea    0x10(%rdi),%rax
  402257:	48 89 47 08          	mov    %rax,0x8(%rdi)
  40225b:	c3                   	retq   

000000000040225c <sigalrm_handler>:
  40225c:	48 83 ec 08          	sub    $0x8,%rsp
  402260:	b9 00 00 00 00       	mov    $0x0,%ecx
  402265:	ba 50 37 40 00       	mov    $0x403750,%edx
  40226a:	be 01 00 00 00       	mov    $0x1,%esi
  40226f:	48 8b 3d 4a 32 20 00 	mov    0x20324a(%rip),%rdi        # 6054c0 <stderr@@GLIBC_2.2.5>
  402276:	b8 00 00 00 00       	mov    $0x0,%eax
  40227b:	e8 d0 eb ff ff       	callq  400e50 <__fprintf_chk@plt>
  402280:	bf 01 00 00 00       	mov    $0x1,%edi
  402285:	e8 a6 eb ff ff       	callq  400e30 <exit@plt>

000000000040228a <rio_writen>:
  40228a:	41 55                	push   %r13
  40228c:	41 54                	push   %r12
  40228e:	55                   	push   %rbp
  40228f:	53                   	push   %rbx
  402290:	48 83 ec 08          	sub    $0x8,%rsp
  402294:	41 89 fc             	mov    %edi,%r12d
  402297:	48 89 f5             	mov    %rsi,%rbp
  40229a:	49 89 d5             	mov    %rdx,%r13
  40229d:	48 89 d3             	mov    %rdx,%rbx
  4022a0:	eb 06                	jmp    4022a8 <rio_writen+0x1e>
  4022a2:	48 29 c3             	sub    %rax,%rbx
  4022a5:	48 01 c5             	add    %rax,%rbp
  4022a8:	48 85 db             	test   %rbx,%rbx
  4022ab:	74 24                	je     4022d1 <rio_writen+0x47>
  4022ad:	48 89 da             	mov    %rbx,%rdx
  4022b0:	48 89 ee             	mov    %rbp,%rsi
  4022b3:	44 89 e7             	mov    %r12d,%edi
  4022b6:	e8 15 ea ff ff       	callq  400cd0 <write@plt>
  4022bb:	48 85 c0             	test   %rax,%rax
  4022be:	7f e2                	jg     4022a2 <rio_writen+0x18>
  4022c0:	e8 bb e9 ff ff       	callq  400c80 <__errno_location@plt>
  4022c5:	83 38 04             	cmpl   $0x4,(%rax)
  4022c8:	75 15                	jne    4022df <rio_writen+0x55>
  4022ca:	b8 00 00 00 00       	mov    $0x0,%eax
  4022cf:	eb d1                	jmp    4022a2 <rio_writen+0x18>
  4022d1:	4c 89 e8             	mov    %r13,%rax
  4022d4:	48 83 c4 08          	add    $0x8,%rsp
  4022d8:	5b                   	pop    %rbx
  4022d9:	5d                   	pop    %rbp
  4022da:	41 5c                	pop    %r12
  4022dc:	41 5d                	pop    %r13
  4022de:	c3                   	retq   
  4022df:	48 c7 c0 ff ff ff ff 	mov    $0xffffffffffffffff,%rax
  4022e6:	eb ec                	jmp    4022d4 <rio_writen+0x4a>

00000000004022e8 <rio_read>:
  4022e8:	41 55                	push   %r13
  4022ea:	41 54                	push   %r12
  4022ec:	55                   	push   %rbp
  4022ed:	53                   	push   %rbx
  4022ee:	48 83 ec 08          	sub    $0x8,%rsp
  4022f2:	48 89 fb             	mov    %rdi,%rbx
  4022f5:	49 89 f5             	mov    %rsi,%r13
  4022f8:	49 89 d4             	mov    %rdx,%r12
  4022fb:	eb 0a                	jmp    402307 <rio_read+0x1f>
  4022fd:	e8 7e e9 ff ff       	callq  400c80 <__errno_location@plt>
  402302:	83 38 04             	cmpl   $0x4,(%rax)
  402305:	75 5c                	jne    402363 <rio_read+0x7b>
  402307:	8b 6b 04             	mov    0x4(%rbx),%ebp
  40230a:	85 ed                	test   %ebp,%ebp
  40230c:	7f 24                	jg     402332 <rio_read+0x4a>
  40230e:	48 8d 6b 10          	lea    0x10(%rbx),%rbp
  402312:	8b 3b                	mov    (%rbx),%edi
  402314:	ba 00 20 00 00       	mov    $0x2000,%edx
  402319:	48 89 ee             	mov    %rbp,%rsi
  40231c:	e8 0f ea ff ff       	callq  400d30 <read@plt>
  402321:	89 43 04             	mov    %eax,0x4(%rbx)
  402324:	85 c0                	test   %eax,%eax
  402326:	78 d5                	js     4022fd <rio_read+0x15>
  402328:	85 c0                	test   %eax,%eax
  40232a:	74 40                	je     40236c <rio_read+0x84>
  40232c:	48 89 6b 08          	mov    %rbp,0x8(%rbx)
  402330:	eb d5                	jmp    402307 <rio_read+0x1f>
  402332:	89 e8                	mov    %ebp,%eax
  402334:	4c 39 e0             	cmp    %r12,%rax
  402337:	72 03                	jb     40233c <rio_read+0x54>
  402339:	44 89 e5             	mov    %r12d,%ebp
  40233c:	4c 63 e5             	movslq %ebp,%r12
  40233f:	48 8b 73 08          	mov    0x8(%rbx),%rsi
  402343:	4c 89 e2             	mov    %r12,%rdx
  402346:	4c 89 ef             	mov    %r13,%rdi
  402349:	e8 32 ea ff ff       	callq  400d80 <memcpy@plt>
  40234e:	4c 01 63 08          	add    %r12,0x8(%rbx)
  402352:	29 6b 04             	sub    %ebp,0x4(%rbx)
  402355:	4c 89 e0             	mov    %r12,%rax
  402358:	48 83 c4 08          	add    $0x8,%rsp
  40235c:	5b                   	pop    %rbx
  40235d:	5d                   	pop    %rbp
  40235e:	41 5c                	pop    %r12
  402360:	41 5d                	pop    %r13
  402362:	c3                   	retq   
  402363:	48 c7 c0 ff ff ff ff 	mov    $0xffffffffffffffff,%rax
  40236a:	eb ec                	jmp    402358 <rio_read+0x70>
  40236c:	b8 00 00 00 00       	mov    $0x0,%eax
  402371:	eb e5                	jmp    402358 <rio_read+0x70>

0000000000402373 <rio_readlineb>:
  402373:	41 55                	push   %r13
  402375:	41 54                	push   %r12
  402377:	55                   	push   %rbp
  402378:	53                   	push   %rbx
  402379:	48 83 ec 18          	sub    $0x18,%rsp
  40237d:	49 89 fd             	mov    %rdi,%r13
  402380:	48 89 f5             	mov    %rsi,%rbp
  402383:	49 89 d4             	mov    %rdx,%r12
  402386:	64 48 8b 04 25 28 00 	mov    %fs:0x28,%rax
  40238d:	00 00 
  40238f:	48 89 44 24 08       	mov    %rax,0x8(%rsp)
  402394:	31 c0                	xor    %eax,%eax
  402396:	bb 01 00 00 00       	mov    $0x1,%ebx
  40239b:	4c 39 e3             	cmp    %r12,%rbx
  40239e:	73 47                	jae    4023e7 <rio_readlineb+0x74>
  4023a0:	ba 01 00 00 00       	mov    $0x1,%edx
  4023a5:	48 8d 74 24 07       	lea    0x7(%rsp),%rsi
  4023aa:	4c 89 ef             	mov    %r13,%rdi
  4023ad:	e8 36 ff ff ff       	callq  4022e8 <rio_read>
  4023b2:	83 f8 01             	cmp    $0x1,%eax
  4023b5:	75 1c                	jne    4023d3 <rio_readlineb+0x60>
  4023b7:	48 8d 45 01          	lea    0x1(%rbp),%rax
  4023bb:	0f b6 54 24 07       	movzbl 0x7(%rsp),%edx
  4023c0:	88 55 00             	mov    %dl,0x0(%rbp)
  4023c3:	80 7c 24 07 0a       	cmpb   $0xa,0x7(%rsp)
  4023c8:	74 1a                	je     4023e4 <rio_readlineb+0x71>
  4023ca:	48 83 c3 01          	add    $0x1,%rbx
  4023ce:	48 89 c5             	mov    %rax,%rbp
  4023d1:	eb c8                	jmp    40239b <rio_readlineb+0x28>
  4023d3:	85 c0                	test   %eax,%eax
  4023d5:	75 32                	jne    402409 <rio_readlineb+0x96>
  4023d7:	48 83 fb 01          	cmp    $0x1,%rbx
  4023db:	75 0a                	jne    4023e7 <rio_readlineb+0x74>
  4023dd:	b8 00 00 00 00       	mov    $0x0,%eax
  4023e2:	eb 0a                	jmp    4023ee <rio_readlineb+0x7b>
  4023e4:	48 89 c5             	mov    %rax,%rbp
  4023e7:	c6 45 00 00          	movb   $0x0,0x0(%rbp)
  4023eb:	48 89 d8             	mov    %rbx,%rax
  4023ee:	48 8b 4c 24 08       	mov    0x8(%rsp),%rcx
  4023f3:	64 48 33 0c 25 28 00 	xor    %fs:0x28,%rcx
  4023fa:	00 00 
  4023fc:	75 14                	jne    402412 <rio_readlineb+0x9f>
  4023fe:	48 83 c4 18          	add    $0x18,%rsp
  402402:	5b                   	pop    %rbx
  402403:	5d                   	pop    %rbp
  402404:	41 5c                	pop    %r12
  402406:	41 5d                	pop    %r13
  402408:	c3                   	retq   
  402409:	48 c7 c0 ff ff ff ff 	mov    $0xffffffffffffffff,%rax
  402410:	eb dc                	jmp    4023ee <rio_readlineb+0x7b>
  402412:	e8 c9 e8 ff ff       	callq  400ce0 <__stack_chk_fail@plt>

0000000000402417 <urlencode>:
  402417:	41 54                	push   %r12
  402419:	55                   	push   %rbp
  40241a:	53                   	push   %rbx
  40241b:	48 83 ec 10          	sub    $0x10,%rsp
  40241f:	48 89 fb             	mov    %rdi,%rbx
  402422:	48 89 f5             	mov    %rsi,%rbp
  402425:	64 48 8b 04 25 28 00 	mov    %fs:0x28,%rax
  40242c:	00 00 
  40242e:	48 89 44 24 08       	mov    %rax,0x8(%rsp)
  402433:	31 c0                	xor    %eax,%eax
  402435:	48 c7 c1 ff ff ff ff 	mov    $0xffffffffffffffff,%rcx
  40243c:	f2 ae                	repnz scas %es:(%rdi),%al
  40243e:	48 89 ce             	mov    %rcx,%rsi
  402441:	48 f7 d6             	not    %rsi
  402444:	8d 46 ff             	lea    -0x1(%rsi),%eax
  402447:	eb 0f                	jmp    402458 <urlencode+0x41>
  402449:	44 88 45 00          	mov    %r8b,0x0(%rbp)
  40244d:	48 8d 6d 01          	lea    0x1(%rbp),%rbp
  402451:	48 83 c3 01          	add    $0x1,%rbx
  402455:	44 89 e0             	mov    %r12d,%eax
  402458:	44 8d 60 ff          	lea    -0x1(%rax),%r12d
  40245c:	85 c0                	test   %eax,%eax
  40245e:	0f 84 a6 00 00 00    	je     40250a <urlencode+0xf3>
  402464:	44 0f b6 03          	movzbl (%rbx),%r8d
  402468:	41 80 f8 2a          	cmp    $0x2a,%r8b
  40246c:	0f 94 c2             	sete   %dl
  40246f:	41 80 f8 2d          	cmp    $0x2d,%r8b
  402473:	0f 94 c0             	sete   %al
  402476:	08 c2                	or     %al,%dl
  402478:	75 cf                	jne    402449 <urlencode+0x32>
  40247a:	41 80 f8 2e          	cmp    $0x2e,%r8b
  40247e:	74 c9                	je     402449 <urlencode+0x32>
  402480:	41 80 f8 5f          	cmp    $0x5f,%r8b
  402484:	74 c3                	je     402449 <urlencode+0x32>
  402486:	41 8d 40 d0          	lea    -0x30(%r8),%eax
  40248a:	3c 09                	cmp    $0x9,%al
  40248c:	76 bb                	jbe    402449 <urlencode+0x32>
  40248e:	41 8d 40 bf          	lea    -0x41(%r8),%eax
  402492:	3c 19                	cmp    $0x19,%al
  402494:	76 b3                	jbe    402449 <urlencode+0x32>
  402496:	41 8d 40 9f          	lea    -0x61(%r8),%eax
  40249a:	3c 19                	cmp    $0x19,%al
  40249c:	76 ab                	jbe    402449 <urlencode+0x32>
  40249e:	41 80 f8 20          	cmp    $0x20,%r8b
  4024a2:	74 54                	je     4024f8 <urlencode+0xe1>
  4024a4:	41 8d 40 e0          	lea    -0x20(%r8),%eax
  4024a8:	3c 5f                	cmp    $0x5f,%al
  4024aa:	0f 96 c2             	setbe  %dl
  4024ad:	41 80 f8 09          	cmp    $0x9,%r8b
  4024b1:	0f 94 c0             	sete   %al
  4024b4:	08 c2                	or     %al,%dl
  4024b6:	74 4d                	je     402505 <urlencode+0xee>
  4024b8:	45 0f b6 c0          	movzbl %r8b,%r8d
  4024bc:	b9 e8 37 40 00       	mov    $0x4037e8,%ecx
  4024c1:	ba 08 00 00 00       	mov    $0x8,%edx
  4024c6:	be 01 00 00 00       	mov    $0x1,%esi
  4024cb:	48 89 e7             	mov    %rsp,%rdi
  4024ce:	b8 00 00 00 00       	mov    $0x0,%eax
  4024d3:	e8 88 e9 ff ff       	callq  400e60 <__sprintf_chk@plt>
  4024d8:	0f b6 04 24          	movzbl (%rsp),%eax
  4024dc:	88 45 00             	mov    %al,0x0(%rbp)
  4024df:	0f b6 44 24 01       	movzbl 0x1(%rsp),%eax
  4024e4:	88 45 01             	mov    %al,0x1(%rbp)
  4024e7:	0f b6 44 24 02       	movzbl 0x2(%rsp),%eax
  4024ec:	88 45 02             	mov    %al,0x2(%rbp)
  4024ef:	48 8d 6d 03          	lea    0x3(%rbp),%rbp
  4024f3:	e9 59 ff ff ff       	jmpq   402451 <urlencode+0x3a>
  4024f8:	c6 45 00 2b          	movb   $0x2b,0x0(%rbp)
  4024fc:	48 8d 6d 01          	lea    0x1(%rbp),%rbp
  402500:	e9 4c ff ff ff       	jmpq   402451 <urlencode+0x3a>
  402505:	b8 ff ff ff ff       	mov    $0xffffffff,%eax
  40250a:	48 8b 74 24 08       	mov    0x8(%rsp),%rsi
  40250f:	64 48 33 34 25 28 00 	xor    %fs:0x28,%rsi
  402516:	00 00 
  402518:	75 09                	jne    402523 <urlencode+0x10c>
  40251a:	48 83 c4 10          	add    $0x10,%rsp
  40251e:	5b                   	pop    %rbx
  40251f:	5d                   	pop    %rbp
  402520:	41 5c                	pop    %r12
  402522:	c3                   	retq   
  402523:	e8 b8 e7 ff ff       	callq  400ce0 <__stack_chk_fail@plt>

0000000000402528 <submitr>:
  402528:	41 57                	push   %r15
  40252a:	41 56                	push   %r14
  40252c:	41 55                	push   %r13
  40252e:	41 54                	push   %r12
  402530:	55                   	push   %rbp
  402531:	53                   	push   %rbx
  402532:	48 81 ec 58 a0 00 00 	sub    $0xa058,%rsp
  402539:	49 89 fc             	mov    %rdi,%r12
  40253c:	89 74 24 04          	mov    %esi,0x4(%rsp)
  402540:	49 89 d7             	mov    %rdx,%r15
  402543:	49 89 ce             	mov    %rcx,%r14
  402546:	4c 89 44 24 08       	mov    %r8,0x8(%rsp)
  40254b:	4d 89 cd             	mov    %r9,%r13
  40254e:	48 8b ac 24 90 a0 00 	mov    0xa090(%rsp),%rbp
  402555:	00 
  402556:	64 48 8b 04 25 28 00 	mov    %fs:0x28,%rax
  40255d:	00 00 
  40255f:	48 89 84 24 48 a0 00 	mov    %rax,0xa048(%rsp)
  402566:	00 
  402567:	31 c0                	xor    %eax,%eax
  402569:	c7 44 24 1c 00 00 00 	movl   $0x0,0x1c(%rsp)
  402570:	00 
  402571:	ba 00 00 00 00       	mov    $0x0,%edx
  402576:	be 01 00 00 00       	mov    $0x1,%esi
  40257b:	bf 02 00 00 00       	mov    $0x2,%edi
  402580:	e8 eb e8 ff ff       	callq  400e70 <socket@plt>
  402585:	85 c0                	test   %eax,%eax
  402587:	0f 88 9b 02 00 00    	js     402828 <submitr+0x300>
  40258d:	89 c3                	mov    %eax,%ebx
  40258f:	4c 89 e7             	mov    %r12,%rdi
  402592:	e8 b9 e7 ff ff       	callq  400d50 <gethostbyname@plt>
  402597:	48 85 c0             	test   %rax,%rax
  40259a:	0f 84 d4 02 00 00    	je     402874 <submitr+0x34c>
  4025a0:	48 c7 44 24 22 00 00 	movq   $0x0,0x22(%rsp)
  4025a7:	00 00 
  4025a9:	c7 44 24 2a 00 00 00 	movl   $0x0,0x2a(%rsp)
  4025b0:	00 
  4025b1:	66 c7 44 24 2e 00 00 	movw   $0x0,0x2e(%rsp)
  4025b8:	66 c7 44 24 20 02 00 	movw   $0x2,0x20(%rsp)
  4025bf:	48 63 50 14          	movslq 0x14(%rax),%rdx
  4025c3:	48 8b 40 18          	mov    0x18(%rax),%rax
  4025c7:	48 8b 30             	mov    (%rax),%rsi
  4025ca:	48 8d 7c 24 24       	lea    0x24(%rsp),%rdi
  4025cf:	b9 0c 00 00 00       	mov    $0xc,%ecx
  4025d4:	e8 87 e7 ff ff       	callq  400d60 <__memmove_chk@plt>
  4025d9:	0f b7 44 24 04       	movzwl 0x4(%rsp),%eax
  4025de:	66 c1 c8 08          	ror    $0x8,%ax
  4025e2:	66 89 44 24 22       	mov    %ax,0x22(%rsp)
  4025e7:	ba 10 00 00 00       	mov    $0x10,%edx
  4025ec:	48 8d 74 24 20       	lea    0x20(%rsp),%rsi
  4025f1:	89 df                	mov    %ebx,%edi
  4025f3:	e8 48 e8 ff ff       	callq  400e40 <connect@plt>
  4025f8:	85 c0                	test   %eax,%eax
  4025fa:	0f 88 dc 02 00 00    	js     4028dc <submitr+0x3b4>
  402600:	48 c7 c6 ff ff ff ff 	mov    $0xffffffffffffffff,%rsi
  402607:	b8 00 00 00 00       	mov    $0x0,%eax
  40260c:	48 89 f1             	mov    %rsi,%rcx
  40260f:	4c 89 ef             	mov    %r13,%rdi
  402612:	f2 ae                	repnz scas %es:(%rdi),%al
  402614:	48 89 ca             	mov    %rcx,%rdx
  402617:	48 f7 d2             	not    %rdx
  40261a:	48 89 f1             	mov    %rsi,%rcx
  40261d:	4c 89 ff             	mov    %r15,%rdi
  402620:	f2 ae                	repnz scas %es:(%rdi),%al
  402622:	48 f7 d1             	not    %rcx
  402625:	49 89 c8             	mov    %rcx,%r8
  402628:	48 89 f1             	mov    %rsi,%rcx
  40262b:	4c 89 f7             	mov    %r14,%rdi
  40262e:	f2 ae                	repnz scas %es:(%rdi),%al
  402630:	48 f7 d1             	not    %rcx
  402633:	4d 8d 44 08 fe       	lea    -0x2(%r8,%rcx,1),%r8
  402638:	48 89 f1             	mov    %rsi,%rcx
  40263b:	48 8b 7c 24 08       	mov    0x8(%rsp),%rdi
  402640:	f2 ae                	repnz scas %es:(%rdi),%al
  402642:	48 89 c8             	mov    %rcx,%rax
  402645:	48 f7 d0             	not    %rax
  402648:	49 8d 4c 00 ff       	lea    -0x1(%r8,%rax,1),%rcx
  40264d:	48 8d 44 52 fd       	lea    -0x3(%rdx,%rdx,2),%rax
  402652:	48 8d 84 01 80 00 00 	lea    0x80(%rcx,%rax,1),%rax
  402659:	00 
  40265a:	48 3d 00 20 00 00    	cmp    $0x2000,%rax
  402660:	0f 87 d0 02 00 00    	ja     402936 <submitr+0x40e>
  402666:	48 8d b4 24 40 40 00 	lea    0x4040(%rsp),%rsi
  40266d:	00 
  40266e:	b9 00 04 00 00       	mov    $0x400,%ecx
  402673:	b8 00 00 00 00       	mov    $0x0,%eax
  402678:	48 89 f7             	mov    %rsi,%rdi
  40267b:	f3 48 ab             	rep stos %rax,%es:(%rdi)
  40267e:	4c 89 ef             	mov    %r13,%rdi
  402681:	e8 91 fd ff ff       	callq  402417 <urlencode>
  402686:	85 c0                	test   %eax,%eax
  402688:	0f 88 1b 03 00 00    	js     4029a9 <submitr+0x481>
  40268e:	4c 8d ac 24 40 20 00 	lea    0x2040(%rsp),%r13
  402695:	00 
  402696:	41 54                	push   %r12
  402698:	48 8d 84 24 48 40 00 	lea    0x4048(%rsp),%rax
  40269f:	00 
  4026a0:	50                   	push   %rax
  4026a1:	4d 89 f9             	mov    %r15,%r9
  4026a4:	4d 89 f0             	mov    %r14,%r8
  4026a7:	b9 78 37 40 00       	mov    $0x403778,%ecx
  4026ac:	ba 00 20 00 00       	mov    $0x2000,%edx
  4026b1:	be 01 00 00 00       	mov    $0x1,%esi
  4026b6:	4c 89 ef             	mov    %r13,%rdi
  4026b9:	b8 00 00 00 00       	mov    $0x0,%eax
  4026be:	e8 9d e7 ff ff       	callq  400e60 <__sprintf_chk@plt>
  4026c3:	48 c7 c1 ff ff ff ff 	mov    $0xffffffffffffffff,%rcx
  4026ca:	b8 00 00 00 00       	mov    $0x0,%eax
  4026cf:	4c 89 ef             	mov    %r13,%rdi
  4026d2:	f2 ae                	repnz scas %es:(%rdi),%al
  4026d4:	48 89 ca             	mov    %rcx,%rdx
  4026d7:	48 f7 d2             	not    %rdx
  4026da:	48 8d 52 ff          	lea    -0x1(%rdx),%rdx
  4026de:	4c 89 ee             	mov    %r13,%rsi
  4026e1:	89 df                	mov    %ebx,%edi
  4026e3:	e8 a2 fb ff ff       	callq  40228a <rio_writen>
  4026e8:	48 83 c4 10          	add    $0x10,%rsp
  4026ec:	48 85 c0             	test   %rax,%rax
  4026ef:	0f 88 3f 03 00 00    	js     402a34 <submitr+0x50c>
  4026f5:	89 de                	mov    %ebx,%esi
  4026f7:	48 8d 7c 24 30       	lea    0x30(%rsp),%rdi
  4026fc:	e8 49 fb ff ff       	callq  40224a <rio_readinitb>
  402701:	ba 00 20 00 00       	mov    $0x2000,%edx
  402706:	48 8d b4 24 40 20 00 	lea    0x2040(%rsp),%rsi
  40270d:	00 
  40270e:	48 8d 7c 24 30       	lea    0x30(%rsp),%rdi
  402713:	e8 5b fc ff ff       	callq  402373 <rio_readlineb>
  402718:	48 85 c0             	test   %rax,%rax
  40271b:	0f 8e 82 03 00 00    	jle    402aa3 <submitr+0x57b>
  402721:	4c 8d 84 24 40 80 00 	lea    0x8040(%rsp),%r8
  402728:	00 
  402729:	48 8d 4c 24 1c       	lea    0x1c(%rsp),%rcx
  40272e:	48 8d 94 24 40 60 00 	lea    0x6040(%rsp),%rdx
  402735:	00 
  402736:	be ef 37 40 00       	mov    $0x4037ef,%esi
  40273b:	48 8d bc 24 40 20 00 	lea    0x2040(%rsp),%rdi
  402742:	00 
  402743:	b8 00 00 00 00       	mov    $0x0,%eax
  402748:	e8 73 e6 ff ff       	callq  400dc0 <__isoc99_sscanf@plt>
  40274d:	48 8d b4 24 40 20 00 	lea    0x2040(%rsp),%rsi
  402754:	00 
  402755:	bf 06 38 40 00       	mov    $0x403806,%edi
  40275a:	b9 03 00 00 00       	mov    $0x3,%ecx
  40275f:	f3 a6                	repz cmpsb %es:(%rdi),%ds:(%rsi)
  402761:	0f 97 c0             	seta   %al
  402764:	1c 00                	sbb    $0x0,%al
  402766:	84 c0                	test   %al,%al
  402768:	0f 84 b3 03 00 00    	je     402b21 <submitr+0x5f9>
  40276e:	ba 00 20 00 00       	mov    $0x2000,%edx
  402773:	48 8d b4 24 40 20 00 	lea    0x2040(%rsp),%rsi
  40277a:	00 
  40277b:	48 8d 7c 24 30       	lea    0x30(%rsp),%rdi
  402780:	e8 ee fb ff ff       	callq  402373 <rio_readlineb>
  402785:	48 85 c0             	test   %rax,%rax
  402788:	7f c3                	jg     40274d <submitr+0x225>
  40278a:	48 b8 45 72 72 6f 72 	movabs $0x43203a726f727245,%rax
  402791:	3a 20 43 
  402794:	48 ba 6c 69 65 6e 74 	movabs $0x6e7520746e65696c,%rdx
  40279b:	20 75 6e 
  40279e:	48 89 45 00          	mov    %rax,0x0(%rbp)
  4027a2:	48 89 55 08          	mov    %rdx,0x8(%rbp)
  4027a6:	48 b8 61 62 6c 65 20 	movabs $0x206f7420656c6261,%rax
  4027ad:	74 6f 20 
  4027b0:	48 ba 72 65 61 64 20 	movabs $0x6165682064616572,%rdx
  4027b7:	68 65 61 
  4027ba:	48 89 45 10          	mov    %rax,0x10(%rbp)
  4027be:	48 89 55 18          	mov    %rdx,0x18(%rbp)
  4027c2:	48 b8 64 65 72 73 20 	movabs $0x6f72662073726564,%rax
  4027c9:	66 72 6f 
  4027cc:	48 ba 6d 20 74 68 65 	movabs $0x657220656874206d,%rdx
  4027d3:	20 72 65 
  4027d6:	48 89 45 20          	mov    %rax,0x20(%rbp)
  4027da:	48 89 55 28          	mov    %rdx,0x28(%rbp)
  4027de:	48 b8 73 75 6c 74 20 	movabs $0x72657320746c7573,%rax
  4027e5:	73 65 72 
  4027e8:	48 89 45 30          	mov    %rax,0x30(%rbp)
  4027ec:	c7 45 38 76 65 72 00 	movl   $0x726576,0x38(%rbp)
  4027f3:	89 df                	mov    %ebx,%edi
  4027f5:	e8 26 e5 ff ff       	callq  400d20 <close@plt>
  4027fa:	b8 ff ff ff ff       	mov    $0xffffffff,%eax
  4027ff:	48 8b 9c 24 48 a0 00 	mov    0xa048(%rsp),%rbx
  402806:	00 
  402807:	64 48 33 1c 25 28 00 	xor    %fs:0x28,%rbx
  40280e:	00 00 
  402810:	0f 85 76 04 00 00    	jne    402c8c <submitr+0x764>
  402816:	48 81 c4 58 a0 00 00 	add    $0xa058,%rsp
  40281d:	5b                   	pop    %rbx
  40281e:	5d                   	pop    %rbp
  40281f:	41 5c                	pop    %r12
  402821:	41 5d                	pop    %r13
  402823:	41 5e                	pop    %r14
  402825:	41 5f                	pop    %r15
  402827:	c3                   	retq   
  402828:	48 b8 45 72 72 6f 72 	movabs $0x43203a726f727245,%rax
  40282f:	3a 20 43 
  402832:	48 ba 6c 69 65 6e 74 	movabs $0x6e7520746e65696c,%rdx
  402839:	20 75 6e 
  40283c:	48 89 45 00          	mov    %rax,0x0(%rbp)
  402840:	48 89 55 08          	mov    %rdx,0x8(%rbp)
  402844:	48 b8 61 62 6c 65 20 	movabs $0x206f7420656c6261,%rax
  40284b:	74 6f 20 
  40284e:	48 ba 63 72 65 61 74 	movabs $0x7320657461657263,%rdx
  402855:	65 20 73 
  402858:	48 89 45 10          	mov    %rax,0x10(%rbp)
  40285c:	48 89 55 18          	mov    %rdx,0x18(%rbp)
  402860:	c7 45 20 6f 63 6b 65 	movl   $0x656b636f,0x20(%rbp)
  402867:	66 c7 45 24 74 00    	movw   $0x74,0x24(%rbp)
  40286d:	b8 ff ff ff ff       	mov    $0xffffffff,%eax
  402872:	eb 8b                	jmp    4027ff <submitr+0x2d7>
  402874:	48 b8 45 72 72 6f 72 	movabs $0x44203a726f727245,%rax
  40287b:	3a 20 44 
  40287e:	48 ba 4e 53 20 69 73 	movabs $0x6e7520736920534e,%rdx
  402885:	20 75 6e 
  402888:	48 89 45 00          	mov    %rax,0x0(%rbp)
  40288c:	48 89 55 08          	mov    %rdx,0x8(%rbp)
  402890:	48 b8 61 62 6c 65 20 	movabs $0x206f7420656c6261,%rax
  402897:	74 6f 20 
  40289a:	48 ba 72 65 73 6f 6c 	movabs $0x2065766c6f736572,%rdx
  4028a1:	76 65 20 
  4028a4:	48 89 45 10          	mov    %rax,0x10(%rbp)
  4028a8:	48 89 55 18          	mov    %rdx,0x18(%rbp)
  4028ac:	48 b8 73 65 72 76 65 	movabs $0x6120726576726573,%rax
  4028b3:	72 20 61 
  4028b6:	48 89 45 20          	mov    %rax,0x20(%rbp)
  4028ba:	c7 45 28 64 64 72 65 	movl   $0x65726464,0x28(%rbp)
  4028c1:	66 c7 45 2c 73 73    	movw   $0x7373,0x2c(%rbp)
  4028c7:	c6 45 2e 00          	movb   $0x0,0x2e(%rbp)
  4028cb:	89 df                	mov    %ebx,%edi
  4028cd:	e8 4e e4 ff ff       	callq  400d20 <close@plt>
  4028d2:	b8 ff ff ff ff       	mov    $0xffffffff,%eax
  4028d7:	e9 23 ff ff ff       	jmpq   4027ff <submitr+0x2d7>
  4028dc:	48 b8 45 72 72 6f 72 	movabs $0x55203a726f727245,%rax
  4028e3:	3a 20 55 
  4028e6:	48 ba 6e 61 62 6c 65 	movabs $0x6f7420656c62616e,%rdx
  4028ed:	20 74 6f 
  4028f0:	48 89 45 00          	mov    %rax,0x0(%rbp)
  4028f4:	48 89 55 08          	mov    %rdx,0x8(%rbp)
  4028f8:	48 b8 20 63 6f 6e 6e 	movabs $0x7463656e6e6f6320,%rax
  4028ff:	65 63 74 
  402902:	48 ba 20 74 6f 20 74 	movabs $0x20656874206f7420,%rdx
  402909:	68 65 20 
  40290c:	48 89 45 10          	mov    %rax,0x10(%rbp)
  402910:	48 89 55 18          	mov    %rdx,0x18(%rbp)
  402914:	c7 45 20 73 65 72 76 	movl   $0x76726573,0x20(%rbp)
  40291b:	66 c7 45 24 65 72    	movw   $0x7265,0x24(%rbp)
  402921:	c6 45 26 00          	movb   $0x0,0x26(%rbp)
  402925:	89 df                	mov    %ebx,%edi
  402927:	e8 f4 e3 ff ff       	callq  400d20 <close@plt>
  40292c:	b8 ff ff ff ff       	mov    $0xffffffff,%eax
  402931:	e9 c9 fe ff ff       	jmpq   4027ff <submitr+0x2d7>
  402936:	48 b8 45 72 72 6f 72 	movabs $0x52203a726f727245,%rax
  40293d:	3a 20 52 
  402940:	48 ba 65 73 75 6c 74 	movabs $0x747320746c757365,%rdx
  402947:	20 73 74 
  40294a:	48 89 45 00          	mov    %rax,0x0(%rbp)
  40294e:	48 89 55 08          	mov    %rdx,0x8(%rbp)
  402952:	48 b8 72 69 6e 67 20 	movabs $0x6f6f7420676e6972,%rax
  402959:	74 6f 6f 
  40295c:	48 ba 20 6c 61 72 67 	movabs $0x202e656772616c20,%rdx
  402963:	65 2e 20 
  402966:	48 89 45 10          	mov    %rax,0x10(%rbp)
  40296a:	48 89 55 18          	mov    %rdx,0x18(%rbp)
  40296e:	48 b8 49 6e 63 72 65 	movabs $0x6573616572636e49,%rax
  402975:	61 73 65 
  402978:	48 ba 20 53 55 42 4d 	movabs $0x5254494d42555320,%rdx
  40297f:	49 54 52 
  402982:	48 89 45 20          	mov    %rax,0x20(%rbp)
  402986:	48 89 55 28          	mov    %rdx,0x28(%rbp)
  40298a:	48 b8 5f 4d 41 58 42 	movabs $0x46554258414d5f,%rax
  402991:	55 46 00 
  402994:	48 89 45 30          	mov    %rax,0x30(%rbp)
  402998:	89 df                	mov    %ebx,%edi
  40299a:	e8 81 e3 ff ff       	callq  400d20 <close@plt>
  40299f:	b8 ff ff ff ff       	mov    $0xffffffff,%eax
  4029a4:	e9 56 fe ff ff       	jmpq   4027ff <submitr+0x2d7>
  4029a9:	48 b8 45 72 72 6f 72 	movabs $0x52203a726f727245,%rax
  4029b0:	3a 20 52 
  4029b3:	48 ba 65 73 75 6c 74 	movabs $0x747320746c757365,%rdx
  4029ba:	20 73 74 
  4029bd:	48 89 45 00          	mov    %rax,0x0(%rbp)
  4029c1:	48 89 55 08          	mov    %rdx,0x8(%rbp)
  4029c5:	48 b8 72 69 6e 67 20 	movabs $0x6e6f6320676e6972,%rax
  4029cc:	63 6f 6e 
  4029cf:	48 ba 74 61 69 6e 73 	movabs $0x6e6120736e696174,%rdx
  4029d6:	20 61 6e 
  4029d9:	48 89 45 10          	mov    %rax,0x10(%rbp)
  4029dd:	48 89 55 18          	mov    %rdx,0x18(%rbp)
  4029e1:	48 b8 20 69 6c 6c 65 	movabs $0x6c6167656c6c6920,%rax
  4029e8:	67 61 6c 
  4029eb:	48 ba 20 6f 72 20 75 	movabs $0x72706e7520726f20,%rdx
  4029f2:	6e 70 72 
  4029f5:	48 89 45 20          	mov    %rax,0x20(%rbp)
  4029f9:	48 89 55 28          	mov    %rdx,0x28(%rbp)
  4029fd:	48 b8 69 6e 74 61 62 	movabs $0x20656c6261746e69,%rax
  402a04:	6c 65 20 
  402a07:	48 ba 63 68 61 72 61 	movabs $0x6574636172616863,%rdx
  402a0e:	63 74 65 
  402a11:	48 89 45 30          	mov    %rax,0x30(%rbp)
  402a15:	48 89 55 38          	mov    %rdx,0x38(%rbp)
  402a19:	66 c7 45 40 72 2e    	movw   $0x2e72,0x40(%rbp)
  402a1f:	c6 45 42 00          	movb   $0x0,0x42(%rbp)
  402a23:	89 df                	mov    %ebx,%edi
  402a25:	e8 f6 e2 ff ff       	callq  400d20 <close@plt>
  402a2a:	b8 ff ff ff ff       	mov    $0xffffffff,%eax
  402a2f:	e9 cb fd ff ff       	jmpq   4027ff <submitr+0x2d7>
  402a34:	48 b8 45 72 72 6f 72 	movabs $0x43203a726f727245,%rax
  402a3b:	3a 20 43 
  402a3e:	48 ba 6c 69 65 6e 74 	movabs $0x6e7520746e65696c,%rdx
  402a45:	20 75 6e 
  402a48:	48 89 45 00          	mov    %rax,0x0(%rbp)
  402a4c:	48 89 55 08          	mov    %rdx,0x8(%rbp)
  402a50:	48 b8 61 62 6c 65 20 	movabs $0x206f7420656c6261,%rax
  402a57:	74 6f 20 
  402a5a:	48 ba 77 72 69 74 65 	movabs $0x6f74206574697277,%rdx
  402a61:	20 74 6f 
  402a64:	48 89 45 10          	mov    %rax,0x10(%rbp)
  402a68:	48 89 55 18          	mov    %rdx,0x18(%rbp)
  402a6c:	48 b8 20 74 68 65 20 	movabs $0x7365722065687420,%rax
  402a73:	72 65 73 
  402a76:	48 ba 75 6c 74 20 73 	movabs $0x7672657320746c75,%rdx
  402a7d:	65 72 76 
  402a80:	48 89 45 20          	mov    %rax,0x20(%rbp)
  402a84:	48 89 55 28          	mov    %rdx,0x28(%rbp)
  402a88:	66 c7 45 30 65 72    	movw   $0x7265,0x30(%rbp)
  402a8e:	c6 45 32 00          	movb   $0x0,0x32(%rbp)
  402a92:	89 df                	mov    %ebx,%edi
  402a94:	e8 87 e2 ff ff       	callq  400d20 <close@plt>
  402a99:	b8 ff ff ff ff       	mov    $0xffffffff,%eax
  402a9e:	e9 5c fd ff ff       	jmpq   4027ff <submitr+0x2d7>
  402aa3:	48 b8 45 72 72 6f 72 	movabs $0x43203a726f727245,%rax
  402aaa:	3a 20 43 
  402aad:	48 ba 6c 69 65 6e 74 	movabs $0x6e7520746e65696c,%rdx
  402ab4:	20 75 6e 
  402ab7:	48 89 45 00          	mov    %rax,0x0(%rbp)
  402abb:	48 89 55 08          	mov    %rdx,0x8(%rbp)
  402abf:	48 b8 61 62 6c 65 20 	movabs $0x206f7420656c6261,%rax
  402ac6:	74 6f 20 
  402ac9:	48 ba 72 65 61 64 20 	movabs $0x7269662064616572,%rdx
  402ad0:	66 69 72 
  402ad3:	48 89 45 10          	mov    %rax,0x10(%rbp)
  402ad7:	48 89 55 18          	mov    %rdx,0x18(%rbp)
  402adb:	48 b8 73 74 20 68 65 	movabs $0x6564616568207473,%rax
  402ae2:	61 64 65 
  402ae5:	48 ba 72 20 66 72 6f 	movabs $0x72206d6f72662072,%rdx
  402aec:	6d 20 72 
  402aef:	48 89 45 20          	mov    %rax,0x20(%rbp)
  402af3:	48 89 55 28          	mov    %rdx,0x28(%rbp)
  402af7:	48 b8 65 73 75 6c 74 	movabs $0x657320746c757365,%rax
  402afe:	20 73 65 
  402b01:	48 89 45 30          	mov    %rax,0x30(%rbp)
  402b05:	c7 45 38 72 76 65 72 	movl   $0x72657672,0x38(%rbp)
  402b0c:	c6 45 3c 00          	movb   $0x0,0x3c(%rbp)
  402b10:	89 df                	mov    %ebx,%edi
  402b12:	e8 09 e2 ff ff       	callq  400d20 <close@plt>
  402b17:	b8 ff ff ff ff       	mov    $0xffffffff,%eax
  402b1c:	e9 de fc ff ff       	jmpq   4027ff <submitr+0x2d7>
  402b21:	ba 00 20 00 00       	mov    $0x2000,%edx
  402b26:	48 8d b4 24 40 20 00 	lea    0x2040(%rsp),%rsi
  402b2d:	00 
  402b2e:	48 8d 7c 24 30       	lea    0x30(%rsp),%rdi
  402b33:	e8 3b f8 ff ff       	callq  402373 <rio_readlineb>
  402b38:	48 85 c0             	test   %rax,%rax
  402b3b:	0f 8e 90 00 00 00    	jle    402bd1 <submitr+0x6a9>
  402b41:	44 8b 44 24 1c       	mov    0x1c(%rsp),%r8d
  402b46:	41 81 f8 c8 00 00 00 	cmp    $0xc8,%r8d
  402b4d:	0f 85 02 01 00 00    	jne    402c55 <submitr+0x72d>
  402b53:	48 8d b4 24 40 20 00 	lea    0x2040(%rsp),%rsi
  402b5a:	00 
  402b5b:	48 89 ef             	mov    %rbp,%rdi
  402b5e:	e8 4d e1 ff ff       	callq  400cb0 <strcpy@plt>
  402b63:	89 df                	mov    %ebx,%edi
  402b65:	e8 b6 e1 ff ff       	callq  400d20 <close@plt>
  402b6a:	bf 00 38 40 00       	mov    $0x403800,%edi
  402b6f:	b9 04 00 00 00       	mov    $0x4,%ecx
  402b74:	48 89 ee             	mov    %rbp,%rsi
  402b77:	f3 a6                	repz cmpsb %es:(%rdi),%ds:(%rsi)
  402b79:	0f 97 c0             	seta   %al
  402b7c:	1c 00                	sbb    $0x0,%al
  402b7e:	0f be c0             	movsbl %al,%eax
  402b81:	85 c0                	test   %eax,%eax
  402b83:	0f 84 76 fc ff ff    	je     4027ff <submitr+0x2d7>
  402b89:	bf 04 38 40 00       	mov    $0x403804,%edi
  402b8e:	b9 05 00 00 00       	mov    $0x5,%ecx
  402b93:	48 89 ee             	mov    %rbp,%rsi
  402b96:	f3 a6                	repz cmpsb %es:(%rdi),%ds:(%rsi)
  402b98:	0f 97 c0             	seta   %al
  402b9b:	1c 00                	sbb    $0x0,%al
  402b9d:	0f be c0             	movsbl %al,%eax
  402ba0:	85 c0                	test   %eax,%eax
  402ba2:	0f 84 57 fc ff ff    	je     4027ff <submitr+0x2d7>
  402ba8:	bf 09 38 40 00       	mov    $0x403809,%edi
  402bad:	b9 03 00 00 00       	mov    $0x3,%ecx
  402bb2:	48 89 ee             	mov    %rbp,%rsi
  402bb5:	f3 a6                	repz cmpsb %es:(%rdi),%ds:(%rsi)
  402bb7:	0f 97 c0             	seta   %al
  402bba:	1c 00                	sbb    $0x0,%al
  402bbc:	0f be c0             	movsbl %al,%eax
  402bbf:	85 c0                	test   %eax,%eax
  402bc1:	0f 84 38 fc ff ff    	je     4027ff <submitr+0x2d7>
  402bc7:	b8 ff ff ff ff       	mov    $0xffffffff,%eax
  402bcc:	e9 2e fc ff ff       	jmpq   4027ff <submitr+0x2d7>
  402bd1:	48 b8 45 72 72 6f 72 	movabs $0x43203a726f727245,%rax
  402bd8:	3a 20 43 
  402bdb:	48 ba 6c 69 65 6e 74 	movabs $0x6e7520746e65696c,%rdx
  402be2:	20 75 6e 
  402be5:	48 89 45 00          	mov    %rax,0x0(%rbp)
  402be9:	48 89 55 08          	mov    %rdx,0x8(%rbp)
  402bed:	48 b8 61 62 6c 65 20 	movabs $0x206f7420656c6261,%rax
  402bf4:	74 6f 20 
  402bf7:	48 ba 72 65 61 64 20 	movabs $0x6174732064616572,%rdx
  402bfe:	73 74 61 
  402c01:	48 89 45 10          	mov    %rax,0x10(%rbp)
  402c05:	48 89 55 18          	mov    %rdx,0x18(%rbp)
  402c09:	48 b8 74 75 73 20 6d 	movabs $0x7373656d20737574,%rax
  402c10:	65 73 73 
  402c13:	48 ba 61 67 65 20 66 	movabs $0x6d6f726620656761,%rdx
  402c1a:	72 6f 6d 
  402c1d:	48 89 45 20          	mov    %rax,0x20(%rbp)
  402c21:	48 89 55 28          	mov    %rdx,0x28(%rbp)
  402c25:	48 b8 20 72 65 73 75 	movabs $0x20746c7573657220,%rax
  402c2c:	6c 74 20 
  402c2f:	48 89 45 30          	mov    %rax,0x30(%rbp)
  402c33:	c7 45 38 73 65 72 76 	movl   $0x76726573,0x38(%rbp)
  402c3a:	66 c7 45 3c 65 72    	movw   $0x7265,0x3c(%rbp)
  402c40:	c6 45 3e 00          	movb   $0x0,0x3e(%rbp)
  402c44:	89 df                	mov    %ebx,%edi
  402c46:	e8 d5 e0 ff ff       	callq  400d20 <close@plt>
  402c4b:	b8 ff ff ff ff       	mov    $0xffffffff,%eax
  402c50:	e9 aa fb ff ff       	jmpq   4027ff <submitr+0x2d7>
  402c55:	4c 8d 8c 24 40 80 00 	lea    0x8040(%rsp),%r9
  402c5c:	00 
  402c5d:	b9 b8 37 40 00       	mov    $0x4037b8,%ecx
  402c62:	48 c7 c2 ff ff ff ff 	mov    $0xffffffffffffffff,%rdx
  402c69:	be 01 00 00 00       	mov    $0x1,%esi
  402c6e:	48 89 ef             	mov    %rbp,%rdi
  402c71:	b8 00 00 00 00       	mov    $0x0,%eax
  402c76:	e8 e5 e1 ff ff       	callq  400e60 <__sprintf_chk@plt>
  402c7b:	89 df                	mov    %ebx,%edi
  402c7d:	e8 9e e0 ff ff       	callq  400d20 <close@plt>
  402c82:	b8 ff ff ff ff       	mov    $0xffffffff,%eax
  402c87:	e9 73 fb ff ff       	jmpq   4027ff <submitr+0x2d7>
  402c8c:	e8 4f e0 ff ff       	callq  400ce0 <__stack_chk_fail@plt>

0000000000402c91 <init_timeout>:
  402c91:	85 ff                	test   %edi,%edi
  402c93:	74 26                	je     402cbb <init_timeout+0x2a>
  402c95:	53                   	push   %rbx
  402c96:	89 fb                	mov    %edi,%ebx
  402c98:	85 ff                	test   %edi,%edi
  402c9a:	78 18                	js     402cb4 <init_timeout+0x23>
  402c9c:	be 5c 22 40 00       	mov    $0x40225c,%esi
  402ca1:	bf 0e 00 00 00       	mov    $0xe,%edi
  402ca6:	e8 95 e0 ff ff       	callq  400d40 <signal@plt>
  402cab:	89 df                	mov    %ebx,%edi
  402cad:	e8 5e e0 ff ff       	callq  400d10 <alarm@plt>
  402cb2:	5b                   	pop    %rbx
  402cb3:	c3                   	retq   
  402cb4:	bb 00 00 00 00       	mov    $0x0,%ebx
  402cb9:	eb e1                	jmp    402c9c <init_timeout+0xb>
  402cbb:	f3 c3                	repz retq 

0000000000402cbd <init_driver>:
  402cbd:	55                   	push   %rbp
  402cbe:	53                   	push   %rbx
  402cbf:	48 83 ec 28          	sub    $0x28,%rsp
  402cc3:	48 89 fd             	mov    %rdi,%rbp
  402cc6:	64 48 8b 04 25 28 00 	mov    %fs:0x28,%rax
  402ccd:	00 00 
  402ccf:	48 89 44 24 18       	mov    %rax,0x18(%rsp)
  402cd4:	31 c0                	xor    %eax,%eax
  402cd6:	be 01 00 00 00       	mov    $0x1,%esi
  402cdb:	bf 0d 00 00 00       	mov    $0xd,%edi
  402ce0:	e8 5b e0 ff ff       	callq  400d40 <signal@plt>
  402ce5:	be 01 00 00 00       	mov    $0x1,%esi
  402cea:	bf 1d 00 00 00       	mov    $0x1d,%edi
  402cef:	e8 4c e0 ff ff       	callq  400d40 <signal@plt>
  402cf4:	be 01 00 00 00       	mov    $0x1,%esi
  402cf9:	bf 1d 00 00 00       	mov    $0x1d,%edi
  402cfe:	e8 3d e0 ff ff       	callq  400d40 <signal@plt>
  402d03:	ba 00 00 00 00       	mov    $0x0,%edx
  402d08:	be 01 00 00 00       	mov    $0x1,%esi
  402d0d:	bf 02 00 00 00       	mov    $0x2,%edi
  402d12:	e8 59 e1 ff ff       	callq  400e70 <socket@plt>
  402d17:	85 c0                	test   %eax,%eax
  402d19:	0f 88 9c 00 00 00    	js     402dbb <init_driver+0xfe>
  402d1f:	89 c3                	mov    %eax,%ebx
  402d21:	bf 0c 38 40 00       	mov    $0x40380c,%edi
  402d26:	e8 25 e0 ff ff       	callq  400d50 <gethostbyname@plt>
  402d2b:	48 85 c0             	test   %rax,%rax
  402d2e:	0f 84 d3 00 00 00    	je     402e07 <init_driver+0x14a>
  402d34:	48 c7 44 24 02 00 00 	movq   $0x0,0x2(%rsp)
  402d3b:	00 00 
  402d3d:	c7 44 24 0a 00 00 00 	movl   $0x0,0xa(%rsp)
  402d44:	00 
  402d45:	66 c7 44 24 0e 00 00 	movw   $0x0,0xe(%rsp)
  402d4c:	66 c7 04 24 02 00    	movw   $0x2,(%rsp)
  402d52:	48 63 50 14          	movslq 0x14(%rax),%rdx
  402d56:	48 8b 40 18          	mov    0x18(%rax),%rax
  402d5a:	48 8b 30             	mov    (%rax),%rsi
  402d5d:	48 8d 7c 24 04       	lea    0x4(%rsp),%rdi
  402d62:	b9 0c 00 00 00       	mov    $0xc,%ecx
  402d67:	e8 f4 df ff ff       	callq  400d60 <__memmove_chk@plt>
  402d6c:	66 c7 44 24 02 3c 9a 	movw   $0x9a3c,0x2(%rsp)
  402d73:	ba 10 00 00 00       	mov    $0x10,%edx
  402d78:	48 89 e6             	mov    %rsp,%rsi
  402d7b:	89 df                	mov    %ebx,%edi
  402d7d:	e8 be e0 ff ff       	callq  400e40 <connect@plt>
  402d82:	85 c0                	test   %eax,%eax
  402d84:	0f 88 e5 00 00 00    	js     402e6f <init_driver+0x1b2>
  402d8a:	89 df                	mov    %ebx,%edi
  402d8c:	e8 8f df ff ff       	callq  400d20 <close@plt>
  402d91:	66 c7 45 00 4f 4b    	movw   $0x4b4f,0x0(%rbp)
  402d97:	c6 45 02 00          	movb   $0x0,0x2(%rbp)
  402d9b:	b8 00 00 00 00       	mov    $0x0,%eax
  402da0:	48 8b 4c 24 18       	mov    0x18(%rsp),%rcx
  402da5:	64 48 33 0c 25 28 00 	xor    %fs:0x28,%rcx
  402dac:	00 00 
  402dae:	0f 85 0e 01 00 00    	jne    402ec2 <init_driver+0x205>
  402db4:	48 83 c4 28          	add    $0x28,%rsp
  402db8:	5b                   	pop    %rbx
  402db9:	5d                   	pop    %rbp
  402dba:	c3                   	retq   
  402dbb:	48 b8 45 72 72 6f 72 	movabs $0x43203a726f727245,%rax
  402dc2:	3a 20 43 
  402dc5:	48 ba 6c 69 65 6e 74 	movabs $0x6e7520746e65696c,%rdx
  402dcc:	20 75 6e 
  402dcf:	48 89 45 00          	mov    %rax,0x0(%rbp)
  402dd3:	48 89 55 08          	mov    %rdx,0x8(%rbp)
  402dd7:	48 b8 61 62 6c 65 20 	movabs $0x206f7420656c6261,%rax
  402dde:	74 6f 20 
  402de1:	48 ba 63 72 65 61 74 	movabs $0x7320657461657263,%rdx
  402de8:	65 20 73 
  402deb:	48 89 45 10          	mov    %rax,0x10(%rbp)
  402def:	48 89 55 18          	mov    %rdx,0x18(%rbp)
  402df3:	c7 45 20 6f 63 6b 65 	movl   $0x656b636f,0x20(%rbp)
  402dfa:	66 c7 45 24 74 00    	movw   $0x74,0x24(%rbp)
  402e00:	b8 ff ff ff ff       	mov    $0xffffffff,%eax
  402e05:	eb 99                	jmp    402da0 <init_driver+0xe3>
  402e07:	48 b8 45 72 72 6f 72 	movabs $0x44203a726f727245,%rax
  402e0e:	3a 20 44 
  402e11:	48 ba 4e 53 20 69 73 	movabs $0x6e7520736920534e,%rdx
  402e18:	20 75 6e 
  402e1b:	48 89 45 00          	mov    %rax,0x0(%rbp)
  402e1f:	48 89 55 08          	mov    %rdx,0x8(%rbp)
  402e23:	48 b8 61 62 6c 65 20 	movabs $0x206f7420656c6261,%rax
  402e2a:	74 6f 20 
  402e2d:	48 ba 72 65 73 6f 6c 	movabs $0x2065766c6f736572,%rdx
  402e34:	76 65 20 
  402e37:	48 89 45 10          	mov    %rax,0x10(%rbp)
  402e3b:	48 89 55 18          	mov    %rdx,0x18(%rbp)
  402e3f:	48 b8 73 65 72 76 65 	movabs $0x6120726576726573,%rax
  402e46:	72 20 61 
  402e49:	48 89 45 20          	mov    %rax,0x20(%rbp)
  402e4d:	c7 45 28 64 64 72 65 	movl   $0x65726464,0x28(%rbp)
  402e54:	66 c7 45 2c 73 73    	movw   $0x7373,0x2c(%rbp)
  402e5a:	c6 45 2e 00          	movb   $0x0,0x2e(%rbp)
  402e5e:	89 df                	mov    %ebx,%edi
  402e60:	e8 bb de ff ff       	callq  400d20 <close@plt>
  402e65:	b8 ff ff ff ff       	mov    $0xffffffff,%eax
  402e6a:	e9 31 ff ff ff       	jmpq   402da0 <init_driver+0xe3>
  402e6f:	48 b8 45 72 72 6f 72 	movabs $0x55203a726f727245,%rax
  402e76:	3a 20 55 
  402e79:	48 ba 6e 61 62 6c 65 	movabs $0x6f7420656c62616e,%rdx
  402e80:	20 74 6f 
  402e83:	48 89 45 00          	mov    %rax,0x0(%rbp)
  402e87:	48 89 55 08          	mov    %rdx,0x8(%rbp)
  402e8b:	48 b8 20 63 6f 6e 6e 	movabs $0x7463656e6e6f6320,%rax
  402e92:	65 63 74 
  402e95:	48 ba 20 74 6f 20 73 	movabs $0x76726573206f7420,%rdx
  402e9c:	65 72 76 
  402e9f:	48 89 45 10          	mov    %rax,0x10(%rbp)
  402ea3:	48 89 55 18          	mov    %rdx,0x18(%rbp)
  402ea7:	66 c7 45 20 65 72    	movw   $0x7265,0x20(%rbp)
  402ead:	c6 45 22 00          	movb   $0x0,0x22(%rbp)
  402eb1:	89 df                	mov    %ebx,%edi
  402eb3:	e8 68 de ff ff       	callq  400d20 <close@plt>
  402eb8:	b8 ff ff ff ff       	mov    $0xffffffff,%eax
  402ebd:	e9 de fe ff ff       	jmpq   402da0 <init_driver+0xe3>
  402ec2:	e8 19 de ff ff       	callq  400ce0 <__stack_chk_fail@plt>

0000000000402ec7 <driver_post>:
  402ec7:	53                   	push   %rbx
  402ec8:	4c 89 cb             	mov    %r9,%rbx
  402ecb:	45 85 c0             	test   %r8d,%r8d
  402ece:	75 18                	jne    402ee8 <driver_post+0x21>
  402ed0:	48 85 ff             	test   %rdi,%rdi
  402ed3:	74 05                	je     402eda <driver_post+0x13>
  402ed5:	80 3f 00             	cmpb   $0x0,(%rdi)
  402ed8:	75 35                	jne    402f0f <driver_post+0x48>
  402eda:	66 c7 03 4f 4b       	movw   $0x4b4f,(%rbx)
  402edf:	c6 43 02 00          	movb   $0x0,0x2(%rbx)
  402ee3:	44 89 c0             	mov    %r8d,%eax
  402ee6:	5b                   	pop    %rbx
  402ee7:	c3                   	retq   
  402ee8:	48 89 ca             	mov    %rcx,%rdx
  402eeb:	be 24 38 40 00       	mov    $0x403824,%esi
  402ef0:	bf 01 00 00 00       	mov    $0x1,%edi
  402ef5:	b8 00 00 00 00       	mov    $0x0,%eax
  402efa:	e8 e1 de ff ff       	callq  400de0 <__printf_chk@plt>
  402eff:	66 c7 03 4f 4b       	movw   $0x4b4f,(%rbx)
  402f04:	c6 43 02 00          	movb   $0x0,0x2(%rbx)
  402f08:	b8 00 00 00 00       	mov    $0x0,%eax
  402f0d:	eb d7                	jmp    402ee6 <driver_post+0x1f>
  402f0f:	48 83 ec 08          	sub    $0x8,%rsp
  402f13:	41 51                	push   %r9
  402f15:	49 89 c9             	mov    %rcx,%r9
  402f18:	49 89 d0             	mov    %rdx,%r8
  402f1b:	48 89 f9             	mov    %rdi,%rcx
  402f1e:	48 89 f2             	mov    %rsi,%rdx
  402f21:	be 9a 3c 00 00       	mov    $0x3c9a,%esi
  402f26:	bf 0c 38 40 00       	mov    $0x40380c,%edi
  402f2b:	e8 f8 f5 ff ff       	callq  402528 <submitr>
  402f30:	48 83 c4 10          	add    $0x10,%rsp
  402f34:	eb b0                	jmp    402ee6 <driver_post+0x1f>

0000000000402f36 <check>:
  402f36:	89 f8                	mov    %edi,%eax
  402f38:	c1 e8 1c             	shr    $0x1c,%eax
  402f3b:	85 c0                	test   %eax,%eax
  402f3d:	74 1d                	je     402f5c <check+0x26>
  402f3f:	b9 00 00 00 00       	mov    $0x0,%ecx
  402f44:	83 f9 1f             	cmp    $0x1f,%ecx
  402f47:	7f 0d                	jg     402f56 <check+0x20>
  402f49:	89 f8                	mov    %edi,%eax
  402f4b:	d3 e8                	shr    %cl,%eax
  402f4d:	3c 0a                	cmp    $0xa,%al
  402f4f:	74 11                	je     402f62 <check+0x2c>
  402f51:	83 c1 08             	add    $0x8,%ecx
  402f54:	eb ee                	jmp    402f44 <check+0xe>
  402f56:	b8 01 00 00 00       	mov    $0x1,%eax
  402f5b:	c3                   	retq   
  402f5c:	b8 00 00 00 00       	mov    $0x0,%eax
  402f61:	c3                   	retq   
  402f62:	b8 00 00 00 00       	mov    $0x0,%eax
  402f67:	c3                   	retq   

0000000000402f68 <gencookie>:
  402f68:	53                   	push   %rbx
  402f69:	83 c7 01             	add    $0x1,%edi
  402f6c:	e8 1f dd ff ff       	callq  400c90 <srandom@plt>
  402f71:	e8 2a de ff ff       	callq  400da0 <random@plt>
  402f76:	89 c3                	mov    %eax,%ebx
  402f78:	89 c7                	mov    %eax,%edi
  402f7a:	e8 b7 ff ff ff       	callq  402f36 <check>
  402f7f:	85 c0                	test   %eax,%eax
  402f81:	74 ee                	je     402f71 <gencookie+0x9>
  402f83:	89 d8                	mov    %ebx,%eax
  402f85:	5b                   	pop    %rbx
  402f86:	c3                   	retq   
  402f87:	66 0f 1f 84 00 00 00 	nopw   0x0(%rax,%rax,1)
  402f8e:	00 00 

0000000000402f90 <__libc_csu_init>:
  402f90:	41 57                	push   %r15
  402f92:	41 56                	push   %r14
  402f94:	49 89 d7             	mov    %rdx,%r15
  402f97:	41 55                	push   %r13
  402f99:	41 54                	push   %r12
  402f9b:	4c 8d 25 6e 1e 20 00 	lea    0x201e6e(%rip),%r12        # 604e10 <__frame_dummy_init_array_entry>
  402fa2:	55                   	push   %rbp
  402fa3:	48 8d 2d 6e 1e 20 00 	lea    0x201e6e(%rip),%rbp        # 604e18 <__do_global_dtors_aux_fini_array_entry>
  402faa:	53                   	push   %rbx
  402fab:	41 89 fd             	mov    %edi,%r13d
  402fae:	49 89 f6             	mov    %rsi,%r14
  402fb1:	4c 29 e5             	sub    %r12,%rbp
  402fb4:	48 83 ec 08          	sub    $0x8,%rsp
  402fb8:	48 c1 fd 03          	sar    $0x3,%rbp
  402fbc:	e8 87 dc ff ff       	callq  400c48 <_init>
  402fc1:	48 85 ed             	test   %rbp,%rbp
  402fc4:	74 20                	je     402fe6 <__libc_csu_init+0x56>
  402fc6:	31 db                	xor    %ebx,%ebx
  402fc8:	0f 1f 84 00 00 00 00 	nopl   0x0(%rax,%rax,1)
  402fcf:	00 
  402fd0:	4c 89 fa             	mov    %r15,%rdx
  402fd3:	4c 89 f6             	mov    %r14,%rsi
  402fd6:	44 89 ef             	mov    %r13d,%edi
  402fd9:	41 ff 14 dc          	callq  *(%r12,%rbx,8)
  402fdd:	48 83 c3 01          	add    $0x1,%rbx
  402fe1:	48 39 dd             	cmp    %rbx,%rbp
  402fe4:	75 ea                	jne    402fd0 <__libc_csu_init+0x40>
  402fe6:	48 83 c4 08          	add    $0x8,%rsp
  402fea:	5b                   	pop    %rbx
  402feb:	5d                   	pop    %rbp
  402fec:	41 5c                	pop    %r12
  402fee:	41 5d                	pop    %r13
  402ff0:	41 5e                	pop    %r14
  402ff2:	41 5f                	pop    %r15
  402ff4:	c3                   	retq   
  402ff5:	90                   	nop
  402ff6:	66 2e 0f 1f 84 00 00 	nopw   %cs:0x0(%rax,%rax,1)
  402ffd:	00 00 00 

0000000000403000 <__libc_csu_fini>:
  403000:	f3 c3                	repz retq 

Disassembly of section .fini:

0000000000403004 <_fini>:
  403004:	48 83 ec 08          	sub    $0x8,%rsp
  403008:	48 83 c4 08          	add    $0x8,%rsp
  40300c:	c3                   	retq   
